(dp0
S'cookies'
p1
(dp2
S'wxloadtime'
p3
S'1530362057'
p4
sS'webwx_data_ticket'
p5
S'gSfby3yCCzWmLefhTBr4SJ+d'
p6
sS'wxuin'
p7
S'377297971'
p8
sS'login_frequency'
p9
S'2'
p10
sS'MM_WX_NOTIFY_STATE'
p11
S'1'
p12
sS'MM_WX_SOUND_STATE'
p13
g12
sS'webwx_auth_ticket'
p14
S'CIsBENe7vcUKGoABP0t8f4oWljP1UhJqOt6YpUoOMRkYd5AjAhwLuquK6ZY6afseYGLVdAxSx/7YfbIjtw7ZZbD41KK/erawRzr2XkacCavaxpTwE8Mvy4Hub+VeqdHPIf8yNozAvUA9bH9qWVhX58bFhIr3umHqfSndWOFEyRYO9U1U94vGUv5wKOw='
p15
sS'last_wxuin'
p16
S'377297971'
p17
sS'webwxuvid'
p18
S'94a90e727238e746724c306afbafdcef5e93c967073deb842743ca12371fa8f87cbdb1bee5be49a56d6069ef725eebe4'
p19
sS'wxpluginkey'
p20
S'1530357043'
p21
sS'wxsid'
p22
S'rPy/hjFLUOiGjUu3'
p23
sS'mm_lang'
p24
S'zh_CN'
p25
ssS'version'
p26
S'1.2.32'
p27
sS'storage'
p28
(dp29
S'userName'
p30
V@be5f3c109cf9468a303e67e3815ea8282eb72c1e192ce8d30bbebcefce0a5e45
p31
sS'lastInputUserName'
p32
NsS'memberList'
p33
(lp34
(dp35
S'UserName'
p36
g31
sS'City'
p37
S''
p38
sS'DisplayName'
p39
g38
sS'UniFriend'
p40
I0
sS'MemberList'
p41
(lp42
sS'PYQuanPin'
p43
V
p44
sS'RemarkPYInitial'
p45
g44
sS'Sex'
p46
I0
sS'AppAccountFlag'
p47
I0
sS'VerifyFlag'
p48
I0
sS'Province'
p49
g38
sS'KeyWord'
p50
g38
sS'RemarkName'
p51
g44
sS'PYInitial'
p52
g44
sS'ChatRoomId'
p53
I0
sS'HideInputBarFlag'
p54
I0
sVHeadImgFlag
p55
I1
sS'EncryChatRoomId'
p56
g38
sS'AttrStatus'
p57
I0
sVWebWxPluginSwitch
p58
I0
sS'SnsFlag'
p59
I0
sS'MemberCount'
p60
I0
sS'OwnerUin'
p61
I0
sS'Alias'
p62
g38
sS'Signature'
p63
V13553831061
p64
sS'ContactFlag'
p65
I0
sS'NickName'
p66
VAsher
p67
sS'RemarkPYQuanPin'
p68
g44
sS'HeadImgUrl'
p69
V/cgi-bin/mmwebwx-bin/webwxgeticon?seq=1766595041&username=@be5f3c109cf9468a303e67e3815ea8282eb72c1e192ce8d30bbebcefce0a5e45&skey=@crypt_7165eb59_75bfc220d41c92b303b862b3c25c692b
p70
sS'Uin'
p71
I377297971
sS'StarFriend'
p72
I0
sS'Statues'
p73
I0
sa(dp74
VUserName
p75
V@4284a90eda3c41706f4343ec0d20bf7e1d7bf66c1e3ef492f53b655661bcebfe
p76
sVCity
p77
g44
sVDisplayName
p78
g44
sVUniFriend
p79
I0
sVMemberList
p80
(lp81
sVPYQuanPin
p82
VFan
p83
sVRemarkPYInitial
p84
g44
sVUin
p85
I0
sVAppAccountFlag
p86
I0
sVVerifyFlag
p87
I0
sVProvince
p88
g44
sVKeyWord
p89
g44
sVRemarkName
p90
g44
sVPYInitial
p91
VFAN
p92
sVChatRoomId
p93
I0
sVIsOwner
p94
I0
sVHideInputBarFlag
p95
I0
sVEncryChatRoomId
p96
g44
sVAttrStatus
p97
I37978145
sVSnsFlag
p98
I17
sVMemberCount
p99
I0
sVOwnerUin
p100
I0
sVAlias
p101
g44
sVSignature
p102
V13716155774
p103
sVContactFlag
p104
I3
sVNickName
p105
VFan
p106
sVRemarkPYQuanPin
p107
g44
sVHeadImgUrl
p108
V/cgi-bin/mmwebwx-bin/webwxgeticon?seq=646254280&username=@4284a90eda3c41706f4343ec0d20bf7e1d7bf66c1e3ef492f53b655661bcebfe&skey=@crypt_7165eb59_75bfc220d41c92b303b862b3c25c692b
p109
sVSex
p110
I1
sVStarFriend
p111
I0
sVStatues
p112
I0
sa(dp113
VUserName
p114
V@028e0911061e176bfa1e9c09d8741e04
p115
sVCity
p116
V\u5357\u660c
p117
sVDisplayName
p118
g44
sVUniFriend
p119
I0
sVMemberList
p120
(lp121
sVPYQuanPin
p122
Vshishuiliunian
p123
sVRemarkPYInitial
p124
g44
sVUin
p125
I0
sVAppAccountFlag
p126
I0
sVVerifyFlag
p127
I0
sVProvince
p128
V\u6c5f\u897f
p129
sVKeyWord
p130
Vhou
p131
sVRemarkName
p132
g44
sVPYInitial
p133
VSSLN
p134
sVChatRoomId
p135
I0
sVIsOwner
p136
I0
sVHideInputBarFlag
p137
I0
sVEncryChatRoomId
p138
g44
sVAttrStatus
p139
I33656935
sVSnsFlag
p140
I17
sVMemberCount
p141
I0
sVOwnerUin
p142
I0
sVAlias
p143
g44
sVSignature
p144
g44
sVContactFlag
p145
I1
sVNickName
p146
V\u4f3c\u6c34\u6d41\u5e74
p147
sVRemarkPYQuanPin
p148
g44
sVHeadImgUrl
p149
V/cgi-bin/mmwebwx-bin/webwxgeticon?seq=646254445&username=@028e0911061e176bfa1e9c09d8741e04&skey=@crypt_7165eb59_75bfc220d41c92b303b862b3c25c692b
p150
sVSex
p151
I1
sVStarFriend
p152
I0
sVStatues
p153
I0
sa(dp154
VUserName
p155
V@5ffc3b5833ada16793e26a69e5e79973508eb29b0be4d7f2ff80623d41cab2de
p156
sVCity
p157
g44
sVDisplayName
p158
g44
sVUniFriend
p159
I0
sVMemberList
p160
(lp161
sVPYQuanPin
p162
Vmuziriyue
p163
sVRemarkPYInitial
p164
g44
sVUin
p165
I0
sVAppAccountFlag
p166
I0
sVVerifyFlag
p167
I0
sVProvince
p168
g44
sVKeyWord
p169
g44
sVRemarkName
p170
g44
sVPYInitial
p171
VMZRY
p172
sVChatRoomId
p173
I0
sVIsOwner
p174
I0
sVHideInputBarFlag
p175
I0
sVEncryChatRoomId
p176
g44
sVAttrStatus
p177
I102437
sVSnsFlag
p178
I1
sVMemberCount
p179
I0
sVOwnerUin
p180
I0
sVAlias
p181
g44
sVSignature
p182
V\u4f60\uff0c
p183
sVContactFlag
p184
I1
sVNickName
p185
V\u6728\u5b50\u65e5\u6708
p186
sVRemarkPYQuanPin
p187
g44
sVHeadImgUrl
p188
V/cgi-bin/mmwebwx-bin/webwxgeticon?seq=646254442&username=@5ffc3b5833ada16793e26a69e5e79973508eb29b0be4d7f2ff80623d41cab2de&skey=@crypt_7165eb59_75bfc220d41c92b303b862b3c25c692b
p189
sVSex
p190
I0
sVStarFriend
p191
I0
sVStatues
p192
I0
sa(dp193
VUserName
p194
V@dff1d654129d706b6fff3bab5c1445b7795bab9c12b1051d47a5bdb5b95f8d8a
p195
sVCity
p196
g44
sVDisplayName
p197
g44
sVUniFriend
p198
I0
sVMemberList
p199
(lp200
sVPYQuanPin
p201
Vlf
p202
sVRemarkPYInitial
p203
VLF
p204
sVUin
p205
I0
sVAppAccountFlag
p206
I0
sVVerifyFlag
p207
I0
sVProvince
p208
g44
sVKeyWord
p209
g44
sVRemarkName
p210
V\u674e\u51e4
p211
sVPYInitial
p212
VLF
p213
sVChatRoomId
p214
I0
sVIsOwner
p215
I0
sVHideInputBarFlag
p216
I0
sVEncryChatRoomId
p217
g44
sVAttrStatus
p218
I12389
sVSnsFlag
p219
I17
sVMemberCount
p220
I0
sVOwnerUin
p221
I0
sVAlias
p222
g44
sVSignature
p223
V\u4eba\u5f97\u6309\u4f60\u60f3\u7684\u53bb\u751f\u6d3b\uff0c\u5426\u5219\uff0c\u4f60\u8fdf\u65e9\u4f1a\u6309\u4f60\u751f\u6d3b\u7684\u53bb\u60f3\u3002
p224
sVContactFlag
p225
I1
sVNickName
p226
Vl@f
p227
sVRemarkPYQuanPin
p228
Vlifeng
p229
sVHeadImgUrl
p230
V/cgi-bin/mmwebwx-bin/webwxgeticon?seq=666524892&username=@dff1d654129d706b6fff3bab5c1445b7795bab9c12b1051d47a5bdb5b95f8d8a&skey=@crypt_7165eb59_75bfc220d41c92b303b862b3c25c692b
p231
sVSex
p232
I2
sVStarFriend
p233
I0
sVStatues
p234
I0
sa(dp235
VUserName
p236
V@8a263b32860fbf99830670f56dd82192c93250029cd9553715426d80a10cc8d5
p237
sVCity
p238
V\u5b9c\u6625
p239
sVDisplayName
p240
g44
sVUniFriend
p241
I0
sVMemberList
p242
(lp243
sVPYQuanPin
p244
Vhuaxinglongchuanglianxiaolanjianfeiyangsheng
p245
sVRemarkPYInitial
p246
g44
sVUin
p247
I0
sVAppAccountFlag
p248
I0
sVVerifyFlag
p249
I0
sVProvince
p250
V\u6c5f\u897f
p251
sVKeyWord
p252
g44
sVRemarkName
p253
g44
sVPYInitial
p254
VHXLCLXLJFYS
p255
sVChatRoomId
p256
I0
sVIsOwner
p257
I0
sVHideInputBarFlag
p258
I0
sVEncryChatRoomId
p259
g44
sVAttrStatus
p260
I102501
sVSnsFlag
p261
I17
sVMemberCount
p262
I0
sVOwnerUin
p263
I0
sVAlias
p264
g44
sVSignature
p265
V\u5065\u5eb7\u51cf\u80a5\u4e0d\u5403\u836f\uff01\u4e0d\u6253\u9488\uff01\u4e0d\u8282\u98df\uff01\u7fbd\u60a6\u672c\u8349\u4e2d\u836f\u5916\u6577\u6708\u76268~15\u65a4\uff01
p266
sVContactFlag
p267
I1
sVNickName
p268
V\u534e\u5174\u9686\u7a97\u5e18\uff5e\u5c0f\u5170\uff08\u51cf\u80a5\u517b\u751f\uff09
p269
sVRemarkPYQuanPin
p270
g44
sVHeadImgUrl
p271
V/cgi-bin/mmwebwx-bin/webwxgeticon?seq=668584994&username=@8a263b32860fbf99830670f56dd82192c93250029cd9553715426d80a10cc8d5&skey=@crypt_7165eb59_75bfc220d41c92b303b862b3c25c692b
p272
sVSex
p273
I2
sVStarFriend
p274
I0
sVStatues
p275
I0
sa(dp276
VUserName
p277
V@603403fd378b45a38a89a5c738191ad33697eaccb7ecdc981683a158fe73262c
p278
sVCity
p279
V\u6df1\u5733
p280
sVDisplayName
p281
g44
sVUniFriend
p282
I0
sVMemberList
p283
(lp284
sVPYQuanPin
p285
Vbanzhuan
p286
sVRemarkPYInitial
p287
VFEN
p288
sVUin
p289
I0
sVAppAccountFlag
p290
I0
sVVerifyFlag
p291
I0
sVProvince
p292
V\u5e7f\u4e1c
p293
sVKeyWord
p294
g44
sVRemarkName
p295
VFen
p296
sVPYInitial
p297
VBZ
p298
sVChatRoomId
p299
I0
sVIsOwner
p300
I0
sVHideInputBarFlag
p301
I0
sVEncryChatRoomId
p302
g44
sVAttrStatus
p303
I102693
sVSnsFlag
p304
I1
sVMemberCount
p305
I0
sVOwnerUin
p306
I0
sVAlias
p307
g44
sVSignature
p308
g44
sVContactFlag
p309
I32771
sVNickName
p310
V\u642c\u7816
p311
sVRemarkPYQuanPin
p312
VFen
p313
sVHeadImgUrl
p314
V/cgi-bin/mmwebwx-bin/webwxgeticon?seq=655944580&username=@603403fd378b45a38a89a5c738191ad33697eaccb7ecdc981683a158fe73262c&skey=@crypt_7165eb59_75bfc220d41c92b303b862b3c25c692b
p315
sVSex
p316
I2
sVStarFriend
p317
I0
sVStatues
p318
I0
sa(dp319
VUserName
p320
V@9462a77db0dce5e3b1ad99d8b2103e102ea556ea3b071ccde49502447f527b5b
p321
sVCity
p322
V\u4e1c\u839e
p323
sVDisplayName
p324
g44
sVUniFriend
p325
I0
sVMemberList
p326
(lp327
sVPYQuanPin
p328
Vfeifeispanclassemojiemoji1f49dspan
p329
sVRemarkPYInitial
p330
g44
sVUin
p331
I0
sVAppAccountFlag
p332
I0
sVVerifyFlag
p333
I0
sVProvince
p334
V\u5e7f\u4e1c
p335
sVKeyWord
p336
g44
sVRemarkName
p337
g44
sVPYInitial
p338
VFFSPANCLASSEMOJIEMOJI1F49DSPAN
p339
sVChatRoomId
p340
I0
sVIsOwner
p341
I0
sVHideInputBarFlag
p342
I0
sVEncryChatRoomId
p343
g44
sVAttrStatus
p344
I107125
sVSnsFlag
p345
I17
sVMemberCount
p346
I0
sVOwnerUin
p347
I0
sVAlias
p348
g44
sVSignature
p349
g44
sVContactFlag
p350
I1
sVNickName
p351
V\u83f2\u83f2\U0001f49d
p352
sVRemarkPYQuanPin
p353
g44
sVHeadImgUrl
p354
V/cgi-bin/mmwebwx-bin/webwxgeticon?seq=668585767&username=@9462a77db0dce5e3b1ad99d8b2103e102ea556ea3b071ccde49502447f527b5b&skey=@crypt_7165eb59_75bfc220d41c92b303b862b3c25c692b
p355
sVSex
p356
I2
sVStarFriend
p357
I0
sVStatues
p358
I0
sasS'chatroomList'
p359
(lp360
(dp361
VUserName
p362
V@@cecfc4b4795daf370ea8a1aa9f97f6fbcc23a656947553a817090bb764dec7a9
p363
sVCity
p364
g44
sVDisplayName
p365
g44
sVUniFriend
p366
I0
sS'self'
p367
(dp368
g36
g31
sg37
g38
sg39
g38
sg40
I0
sg61
I0
sg41
(lp369
sg43
g44
sg45
g44
sg71
I377297971
sg47
I0
sg48
I0
sg49
g38
sg50
g38
sg51
g44
sg52
g44
sg53
I0
sg54
I0
sg55
I1
sg56
g38
sg57
I0
sg59
I0
sg60
I0
sg58
I0
sg62
g38
sg63
g64
sg65
I0
sg66
g67
sg68
g44
sg69
g70
sg46
I0
sg72
I0
sg73
I0
ssVMemberList
p370
(lp371
sVPYQuanPin
p372
g44
sVRemarkPYInitial
p373
g44
sVSex
p374
I0
sVAppAccountFlag
p375
I0
sVVerifyFlag
p376
I0
sVProvince
p377
g44
sVKeyWord
p378
g44
sVRemarkName
p379
g44
sVPYInitial
p380
g44
sVIsOwner
p381
I0
sVChatRoomId
p382
I0
sVHideInputBarFlag
p383
I0
sVEncryChatRoomId
p384
g44
sVAttrStatus
p385
I0
sVSnsFlag
p386
I0
sVMemberCount
p387
I3
sVOwnerUin
p388
I0
sVAlias
p389
g44
sVSignature
p390
g44
sVContactFlag
p391
I0
sVNickName
p392
VAsher,\u642c\u7816,Fan
p393
sVRemarkPYQuanPin
p394
g44
sVHeadImgUrl
p395
V/cgi-bin/mmwebwx-bin/webwxgetheadimg?seq=0&username=@@cecfc4b4795daf370ea8a1aa9f97f6fbcc23a656947553a817090bb764dec7a9&skey=@crypt_7165eb59_75bfc220d41c92b303b862b3c25c692b
p396
sVUin
p397
I0
sVStarFriend
p398
I0
sVStatues
p399
I1
sS'isAdmin'
p400
NsasS'nickName'
p401
g67
sS'mpList'
p402
(lp403
ssS'loginInfo'
p404
(dp405
S'SyncKey'
p406
(dp407
VCount
p408
I4
sVList
p409
(lp410
(dp411
VVal
p412
I668586000
sVKey
p413
I1
sa(dp414
VVal
p415
I668586016
sVKey
p416
I2
sa(dp417
VVal
p418
I668585767
sVKey
p419
I3
sa(dp420
VVal
p421
I1530357043
sVKey
p422
I1000
sassS'syncUrl'
p423
S'https://webpush.wx2.qq.com/cgi-bin/mmwebwx-bin'
p424
sS'skey'
p425
V@crypt_7165eb59_75bfc220d41c92b303b862b3c25c692b
p426
sS'wxuin'
p427
V377297971
p428
sS'synckey'
p429
S'1_668586000|2_668586016|3_668585767|1000_1530357043'
p430
sS'url'
p431
Vhttps://wx2.qq.com/cgi-bin/mmwebwx-bin
p432
sS'pass_ticket'
p433
VIgt4VewNSKnkvea%2FiM9eilWjC%2BjC9aTXSjk34tYf9Euj8TL%2Bl7FtsZopF8AROvYI
p434
sS'wxsid'
p435
VrPy/hjFLUOiGjUu3
p436
sS'User'
p437
g35
sS'InviteStartCount'
p438
I40
sS'fileUrl'
p439
S'https://file.wx2.qq.com/cgi-bin/mmwebwx-bin'
p440
sS'BaseRequest'
p441
(dp442
g71
g428
sS'Skey'
p443
g426
sS'DeviceID'
p444
g434
sS'Sid'
p445
g436
ssS'deviceid'
p446
S'e541434878841339'
p447
ss.