(dp0
S'cookies'
p1
(dp2
S'wxloadtime'
p3
S'1530429046'
p4
sS'webwx_data_ticket'
p5
S'gSdyych/12D/rL1+t81tncFu'
p6
sS'wxuin'
p7
S'377297971'
p8
sS'login_frequency'
p9
S'2'
p10
sS'MM_WX_NOTIFY_STATE'
p11
S'1'
p12
sS'MM_WX_SOUND_STATE'
p13
g12
sS'webwx_auth_ticket'
p14
S'CIsBEPe6mb0HGoABAQfPwSy29sd0ntr/QJvGYEoOMRkYd5AjAhwLuquK6ZY6afseYGLVdAxSx/7YfbIjtw7ZZbD41KK/erawRzr2XkacCavaxpTwE8Mvy4Hub+VeqdHPIf8yNozAvUA9bH9qQyIHf/ih0NgYQjO/7BXjLbWsK2/pFmaXroTu9nREOx0='
p15
sS'last_wxuin'
p16
S'377297971'
p17
sS'webwxuvid'
p18
S'94a90e727238e746724c306afbafdcef5e93c967073deb842743ca12371fa8f87cbdb1bee5be49a56d6069ef725eebe4'
p19
sS'wxpluginkey'
p20
S'1530427944'
p21
sS'wxsid'
p22
S'3XOt5O33xZwzd5JT'
p23
sS'mm_lang'
p24
S'zh_CN'
p25
ssS'version'
p26
S'1.2.32'
p27
sS'storage'
p28
(dp29
S'userName'
p30
V@3da4484c92f9bc6f39913323be676721e281feba27c3636a9b5fe54411bb3882
p31
sS'lastInputUserName'
p32
NsS'memberList'
p33
(lp34
(dp35
S'UserName'
p36
g31
sS'City'
p37
S''
p38
sS'DisplayName'
p39
g38
sS'UniFriend'
p40
I0
sS'MemberList'
p41
(lp42
sS'PYQuanPin'
p43
V
p44
sS'RemarkPYInitial'
p45
g44
sS'Sex'
p46
I0
sS'AppAccountFlag'
p47
I0
sS'VerifyFlag'
p48
I0
sS'Province'
p49
g38
sS'KeyWord'
p50
g38
sS'RemarkName'
p51
g44
sS'PYInitial'
p52
g44
sS'ChatRoomId'
p53
I0
sS'HideInputBarFlag'
p54
I0
sVHeadImgFlag
p55
I1
sS'EncryChatRoomId'
p56
g38
sS'AttrStatus'
p57
I0
sVWebWxPluginSwitch
p58
I0
sS'SnsFlag'
p59
I0
sS'MemberCount'
p60
I0
sS'OwnerUin'
p61
I0
sS'Alias'
p62
g38
sS'Signature'
p63
V13553831061
p64
sS'ContactFlag'
p65
I0
sS'NickName'
p66
VAsher
p67
sS'RemarkPYQuanPin'
p68
g44
sS'HeadImgUrl'
p69
V/cgi-bin/mmwebwx-bin/webwxgeticon?seq=1694932595&username=@3da4484c92f9bc6f39913323be676721e281feba27c3636a9b5fe54411bb3882&skey=@crypt_7165eb59_f6b9e28d7223f0b7f89abf72d9b67d28
p70
sS'Uin'
p71
I377297971
sS'StarFriend'
p72
I0
sS'Statues'
p73
I0
sa(dp74
VUserName
p75
V@02f375ce220fbe96ce98037dc4e213bf884646ee4c4efc105f9ac354f8acce50
p76
sVCity
p77
g44
sVDisplayName
p78
g44
sVUniFriend
p79
I0
sVMemberList
p80
(lp81
sVPYQuanPin
p82
VFan
p83
sVRemarkPYInitial
p84
g44
sVUin
p85
I0
sVAppAccountFlag
p86
I0
sVVerifyFlag
p87
I0
sVProvince
p88
g44
sVKeyWord
p89
g44
sVRemarkName
p90
g44
sVPYInitial
p91
VFAN
p92
sVChatRoomId
p93
I0
sVIsOwner
p94
I0
sVHideInputBarFlag
p95
I0
sVEncryChatRoomId
p96
g44
sVAttrStatus
p97
I37978145
sVSnsFlag
p98
I17
sVMemberCount
p99
I0
sVOwnerUin
p100
I0
sVAlias
p101
g44
sVSignature
p102
V13716155774
p103
sVContactFlag
p104
I3
sVNickName
p105
VFan
p106
sVRemarkPYQuanPin
p107
g44
sVHeadImgUrl
p108
V/cgi-bin/mmwebwx-bin/webwxgeticon?seq=646254280&username=@02f375ce220fbe96ce98037dc4e213bf884646ee4c4efc105f9ac354f8acce50&skey=@crypt_7165eb59_f6b9e28d7223f0b7f89abf72d9b67d28
p109
sVSex
p110
I1
sVStarFriend
p111
I0
sVStatues
p112
I0
sa(dp113
VUserName
p114
V@aeda7e7209e9a080a6fed293d36d09b716520dfff5d7e57f377c57fbb1ebc72a
p115
sVCity
p116
V\u6df1\u5733
p117
sVDisplayName
p118
g44
sVUniFriend
p119
I0
sVMemberList
p120
(lp121
sVPYQuanPin
p122
Vbanzhuan
p123
sVRemarkPYInitial
p124
VFEN
p125
sVUin
p126
I0
sVAppAccountFlag
p127
I0
sVVerifyFlag
p128
I0
sVProvince
p129
V\u5e7f\u4e1c
p130
sVKeyWord
p131
g44
sVRemarkName
p132
VFen
p133
sVPYInitial
p134
VBZ
p135
sVChatRoomId
p136
I0
sVIsOwner
p137
I0
sVHideInputBarFlag
p138
I0
sVEncryChatRoomId
p139
g44
sVAttrStatus
p140
I102693
sVSnsFlag
p141
I1
sVMemberCount
p142
I0
sVOwnerUin
p143
I0
sVAlias
p144
g44
sVSignature
p145
g44
sVContactFlag
p146
I32771
sVNickName
p147
V\u642c\u7816
p148
sVRemarkPYQuanPin
p149
VFen
p150
sVHeadImgUrl
p151
V/cgi-bin/mmwebwx-bin/webwxgeticon?seq=655944580&username=@aeda7e7209e9a080a6fed293d36d09b716520dfff5d7e57f377c57fbb1ebc72a&skey=@crypt_7165eb59_f6b9e28d7223f0b7f89abf72d9b67d28
p152
sVSex
p153
I2
sVStarFriend
p154
I0
sVStatues
p155
I0
sa(dp156
VUserName
p157
V@d44242e42d69c02fa663f47a98c3cbe2
p158
sVCity
p159
V\u5357\u660c
p160
sVDisplayName
p161
g44
sVUniFriend
p162
I0
sVMemberList
p163
(lp164
sVPYQuanPin
p165
Vshishuiliunian
p166
sVRemarkPYInitial
p167
g44
sVUin
p168
I0
sVAppAccountFlag
p169
I0
sVVerifyFlag
p170
I0
sVProvince
p171
V\u6c5f\u897f
p172
sVKeyWord
p173
Vhou
p174
sVRemarkName
p175
g44
sVPYInitial
p176
VSSLN
p177
sVChatRoomId
p178
I0
sVIsOwner
p179
I0
sVHideInputBarFlag
p180
I0
sVEncryChatRoomId
p181
g44
sVAttrStatus
p182
I33656935
sVSnsFlag
p183
I17
sVMemberCount
p184
I0
sVOwnerUin
p185
I0
sVAlias
p186
g44
sVSignature
p187
g44
sVContactFlag
p188
I1
sVNickName
p189
V\u4f3c\u6c34\u6d41\u5e74
p190
sVRemarkPYQuanPin
p191
g44
sVHeadImgUrl
p192
V/cgi-bin/mmwebwx-bin/webwxgeticon?seq=646254445&username=@d44242e42d69c02fa663f47a98c3cbe2&skey=@crypt_7165eb59_f6b9e28d7223f0b7f89abf72d9b67d28
p193
sVSex
p194
I1
sVStarFriend
p195
I0
sVStatues
p196
I0
sa(dp197
VUserName
p198
V@e7b9d1509b6a1e1287d09305f1a61715e975abd37bb67d5cb1165e8a2374b23f
p199
sVCity
p200
g44
sVDisplayName
p201
g44
sVUniFriend
p202
I0
sVMemberList
p203
(lp204
sVPYQuanPin
p205
Vmuziriyue
p206
sVRemarkPYInitial
p207
g44
sVUin
p208
I0
sVAppAccountFlag
p209
I0
sVVerifyFlag
p210
I0
sVProvince
p211
g44
sVKeyWord
p212
g44
sVRemarkName
p213
g44
sVPYInitial
p214
VMZRY
p215
sVChatRoomId
p216
I0
sVIsOwner
p217
I0
sVHideInputBarFlag
p218
I0
sVEncryChatRoomId
p219
g44
sVAttrStatus
p220
I102437
sVSnsFlag
p221
I1
sVMemberCount
p222
I0
sVOwnerUin
p223
I0
sVAlias
p224
g44
sVSignature
p225
V\u4f60\uff0c
p226
sVContactFlag
p227
I1
sVNickName
p228
V\u6728\u5b50\u65e5\u6708
p229
sVRemarkPYQuanPin
p230
g44
sVHeadImgUrl
p231
V/cgi-bin/mmwebwx-bin/webwxgeticon?seq=646254442&username=@e7b9d1509b6a1e1287d09305f1a61715e975abd37bb67d5cb1165e8a2374b23f&skey=@crypt_7165eb59_f6b9e28d7223f0b7f89abf72d9b67d28
p232
sVSex
p233
I0
sVStarFriend
p234
I0
sVStatues
p235
I0
sa(dp236
VUserName
p237
V@2efe7f1c71a62d9cfbd09bdfb277c67952d30fbb102d6be3c131e5d741296145
p238
sVCity
p239
g44
sVDisplayName
p240
g44
sVUniFriend
p241
I0
sVMemberList
p242
(lp243
sVPYQuanPin
p244
Vlf
p245
sVRemarkPYInitial
p246
VLF
p247
sVUin
p248
I0
sVAppAccountFlag
p249
I0
sVVerifyFlag
p250
I0
sVProvince
p251
g44
sVKeyWord
p252
g44
sVRemarkName
p253
V\u674e\u51e4
p254
sVPYInitial
p255
VLF
p256
sVChatRoomId
p257
I0
sVIsOwner
p258
I0
sVHideInputBarFlag
p259
I0
sVEncryChatRoomId
p260
g44
sVAttrStatus
p261
I12389
sVSnsFlag
p262
I17
sVMemberCount
p263
I0
sVOwnerUin
p264
I0
sVAlias
p265
g44
sVSignature
p266
V\u4eba\u5f97\u6309\u4f60\u60f3\u7684\u53bb\u751f\u6d3b\uff0c\u5426\u5219\uff0c\u4f60\u8fdf\u65e9\u4f1a\u6309\u4f60\u751f\u6d3b\u7684\u53bb\u60f3\u3002
p267
sVContactFlag
p268
I1
sVNickName
p269
Vl@f
p270
sVRemarkPYQuanPin
p271
Vlifeng
p272
sVHeadImgUrl
p273
V/cgi-bin/mmwebwx-bin/webwxgeticon?seq=666524892&username=@2efe7f1c71a62d9cfbd09bdfb277c67952d30fbb102d6be3c131e5d741296145&skey=@crypt_7165eb59_f6b9e28d7223f0b7f89abf72d9b67d28
p274
sVSex
p275
I2
sVStarFriend
p276
I0
sVStatues
p277
I0
sa(dp278
VUserName
p279
V@d568259808cf4d1c1defd238d1771bc12b2bee51854eeddddefb1b573dcbee6c
p280
sVCity
p281
V\u5b9c\u6625
p282
sVDisplayName
p283
g44
sVUniFriend
p284
I0
sVMemberList
p285
(lp286
sVPYQuanPin
p287
Vhuaxinglongchuanglianxiaolanjianfeiyangsheng
p288
sVRemarkPYInitial
p289
g44
sVUin
p290
I0
sVAppAccountFlag
p291
I0
sVVerifyFlag
p292
I0
sVProvince
p293
V\u6c5f\u897f
p294
sVKeyWord
p295
g44
sVRemarkName
p296
g44
sVPYInitial
p297
VHXLCLXLJFYS
p298
sVChatRoomId
p299
I0
sVIsOwner
p300
I0
sVHideInputBarFlag
p301
I0
sVEncryChatRoomId
p302
g44
sVAttrStatus
p303
I102501
sVSnsFlag
p304
I17
sVMemberCount
p305
I0
sVOwnerUin
p306
I0
sVAlias
p307
g44
sVSignature
p308
V\u5065\u5eb7\u51cf\u80a5\u4e0d\u5403\u836f\uff01\u4e0d\u6253\u9488\uff01\u4e0d\u8282\u98df\uff01\u7fbd\u60a6\u672c\u8349\u4e2d\u836f\u5916\u6577\u6708\u76268~15\u65a4\uff01
p309
sVContactFlag
p310
I1
sVNickName
p311
V\u534e\u5174\u9686\u7a97\u5e18\uff5e\u5c0f\u5170\uff08\u51cf\u80a5\u517b\u751f\uff09
p312
sVRemarkPYQuanPin
p313
g44
sVHeadImgUrl
p314
V/cgi-bin/mmwebwx-bin/webwxgeticon?seq=668584994&username=@d568259808cf4d1c1defd238d1771bc12b2bee51854eeddddefb1b573dcbee6c&skey=@crypt_7165eb59_f6b9e28d7223f0b7f89abf72d9b67d28
p315
sVSex
p316
I2
sVStarFriend
p317
I0
sVStatues
p318
I0
sa(dp319
VUserName
p320
V@7fff7be2e115096ca20879cc16f142e8710ddd951a14d1dcc926e9146b5783c3
p321
sVCity
p322
V\u4e1c\u839e
p323
sVDisplayName
p324
g44
sVUniFriend
p325
I0
sVMemberList
p326
(lp327
sVPYQuanPin
p328
Vfeifeispanclassemojiemoji1f49dspan
p329
sVRemarkPYInitial
p330
g44
sVUin
p331
I0
sVAppAccountFlag
p332
I0
sVVerifyFlag
p333
I0
sVProvince
p334
V\u5e7f\u4e1c
p335
sVKeyWord
p336
g44
sVRemarkName
p337
g44
sVPYInitial
p338
VFFSPANCLASSEMOJIEMOJI1F49DSPAN
p339
sVChatRoomId
p340
I0
sVIsOwner
p341
I0
sVHideInputBarFlag
p342
I0
sVEncryChatRoomId
p343
g44
sVAttrStatus
p344
I107125
sVSnsFlag
p345
I17
sVMemberCount
p346
I0
sVOwnerUin
p347
I0
sVAlias
p348
g44
sVSignature
p349
g44
sVContactFlag
p350
I1
sVNickName
p351
V\u83f2\u83f2\U0001f49d
p352
sVRemarkPYQuanPin
p353
g44
sVHeadImgUrl
p354
V/cgi-bin/mmwebwx-bin/webwxgeticon?seq=668585767&username=@7fff7be2e115096ca20879cc16f142e8710ddd951a14d1dcc926e9146b5783c3&skey=@crypt_7165eb59_f6b9e28d7223f0b7f89abf72d9b67d28
p355
sVSex
p356
I2
sVStarFriend
p357
I0
sVStatues
p358
I0
sasS'chatroomList'
p359
(lp360
sS'nickName'
p361
g67
sS'mpList'
p362
(lp363
ssS'loginInfo'
p364
(dp365
S'SyncKey'
p366
(dp367
VCount
p368
I4
sVList
p369
(lp370
(dp371
VVal
p372
I668586208
sVKey
p373
I1
sa(dp374
VVal
p375
I668586238
sVKey
p376
I2
sa(dp377
VVal
p378
I668585767
sVKey
p379
I3
sa(dp380
VVal
p381
I1530427944
sVKey
p382
I1000
sassS'syncUrl'
p383
S'https://webpush.wx2.qq.com/cgi-bin/mmwebwx-bin'
p384
sS'skey'
p385
V@crypt_7165eb59_f6b9e28d7223f0b7f89abf72d9b67d28
p386
sS'wxuin'
p387
V377297971
p388
sS'synckey'
p389
S'1_668586208|2_668586238|3_668585767|1000_1530427944'
p390
sS'url'
p391
Vhttps://wx2.qq.com/cgi-bin/mmwebwx-bin
p392
sS'pass_ticket'
p393
VISytaPHceXwoKFVvywFrzcMq4GJWBz6QWNXMQXM3wNxkHoTCLPAiVjWIBh1vsgtH
p394
sS'wxsid'
p395
V3XOt5O33xZwzd5JT
p396
sS'User'
p397
g35
sS'InviteStartCount'
p398
I40
sS'fileUrl'
p399
S'https://file.wx2.qq.com/cgi-bin/mmwebwx-bin'
p400
sS'BaseRequest'
p401
(dp402
g71
g388
sS'Skey'
p403
g386
sS'DeviceID'
p404
g394
sS'Sid'
p405
g396
ssS'deviceid'
p406
S'e804472668765020'
p407
ss.