((iwxpy.utils.puid_map
TwoWayDict
p0
(dp1
S'_reversed'
p2
(dp3
V2408ca6c
p4
V@d46e10852f3546431585e762a354939aecea3edd0e011f79b73e489992c8f416
p5
ssS'data'
p6
(dp7
g5
g4
ssb(iwxpy.utils.puid_map
TwoWayDict
p8
(dp9
g2
(dp10
g4
I377297971
ssg6
(dp11
I377297971
g4
ssb(iwxpy.utils.puid_map
TwoWayDict
p12
(dp13
g2
(dp14
sg6
(dp15
sb(iwxpy.utils.puid_map
TwoWayDict
p16
(dp17
g2
(dp18
g4
(VAsher
p19
I0
S''
p20
g20
tp21
ssg6
(dp22
g21
g4
ssbtp23
.