(dp0
S'cookies'
p1
(dp2
S'webwx_data_ticket'
p3
S'gSdNl4ojxX5lAAj6AUDMy8GF'
p4
sS'wxuin'
p5
S'377297971'
p6
sS'webwxuvid'
p7
S'151ca9ab76ca17486cd5b3217dcfbdc78e01665dc9c0c2daacbbeba0b26ddfe57fbc291051b6fdf02c06fc4291406763'
p8
sS'webwx_auth_ticket'
p9
S'CIsBEOew9awGGoABi+SIAyeL0Hsw7s2CIJ6TBr2R4i0Y3N1Si5FPoD3Q/3ot3NLIMMej0X3vN+f5DlEgXpR+ThEh7Ubr8cs3+P8xLvA2XiFWE7ntm10mtDInUJT8wGmOC7ROI20xCCcrwBJCH9ihPCbIfnp1I+ceRxK4lWgloCrwPXADanQvFGjEVbk='
p10
sS'wxloadtime'
p11
S'1530294834_expired'
p12
sS'wxpluginkey'
p13
S'1530273674'
p14
sS'wxsid'
p15
S'iI2lHIw4klJXEHOp'
p16
sS'mm_lang'
p17
S'zh_CN'
p18
ssS'version'
p19
S'1.2.32'
p20
sS'storage'
p21
(dp22
S'userName'
p23
V@14b37be10c5105250d648aa3fe84eda30180fb9dcbde13d1c6dc7f1bcd2fd2b2
p24
sS'lastInputUserName'
p25
NsS'memberList'
p26
(lp27
(dp28
S'UserName'
p29
g24
sS'City'
p30
S''
p31
sS'DisplayName'
p32
g31
sS'UniFriend'
p33
I0
sS'MemberList'
p34
(lp35
sS'PYQuanPin'
p36
V
p37
sS'RemarkPYInitial'
p38
g37
sS'Sex'
p39
I0
sS'AppAccountFlag'
p40
I0
sS'VerifyFlag'
p41
I0
sS'Province'
p42
g31
sS'KeyWord'
p43
g31
sS'RemarkName'
p44
g37
sS'PYInitial'
p45
g37
sS'ChatRoomId'
p46
I0
sS'HideInputBarFlag'
p47
I0
sVHeadImgFlag
p48
I1
sS'EncryChatRoomId'
p49
g31
sS'AttrStatus'
p50
I0
sVWebWxPluginSwitch
p51
I0
sS'SnsFlag'
p52
I0
sS'MemberCount'
p53
I0
sS'OwnerUin'
p54
I0
sS'Alias'
p55
g31
sS'Signature'
p56
V13553831061
p57
sS'ContactFlag'
p58
I0
sS'NickName'
p59
VAsher
p60
sS'RemarkPYQuanPin'
p61
g37
sS'HeadImgUrl'
p62
V/cgi-bin/mmwebwx-bin/webwxgeticon?seq=45606365&username=@14b37be10c5105250d648aa3fe84eda30180fb9dcbde13d1c6dc7f1bcd2fd2b2&skey=@crypt_7165eb59_ecec69608a5187a603046c6e3332a224
p63
sS'Uin'
p64
I377297971
sS'StarFriend'
p65
I0
sS'Statues'
p66
I0
sa(dp67
VUserName
p68
V@7f4f29b41a5474a0f692ac22c45523c5
p69
sVCity
p70
V\u5357\u660c
p71
sVDisplayName
p72
g37
sVUniFriend
p73
I0
sVMemberList
p74
(lp75
sVPYQuanPin
p76
Vshishuiliunian
p77
sVRemarkPYInitial
p78
g37
sVUin
p79
I0
sVAppAccountFlag
p80
I0
sVVerifyFlag
p81
I0
sVProvince
p82
V\u6c5f\u897f
p83
sVKeyWord
p84
Vhou
p85
sVRemarkName
p86
g37
sVPYInitial
p87
VSSLN
p88
sVChatRoomId
p89
I0
sVIsOwner
p90
I0
sVHideInputBarFlag
p91
I0
sVEncryChatRoomId
p92
g37
sVAttrStatus
p93
I33656935
sVSnsFlag
p94
I17
sVMemberCount
p95
I0
sVOwnerUin
p96
I0
sVAlias
p97
g37
sVSignature
p98
g37
sVContactFlag
p99
I1
sVNickName
p100
V\u4f3c\u6c34\u6d41\u5e74
p101
sVRemarkPYQuanPin
p102
g37
sVHeadImgUrl
p103
V/cgi-bin/mmwebwx-bin/webwxgeticon?seq=646254445&username=@7f4f29b41a5474a0f692ac22c45523c5&skey=@crypt_7165eb59_ecec69608a5187a603046c6e3332a224
p104
sVSex
p105
I1
sVStarFriend
p106
I0
sVStatues
p107
I0
sa(dp108
VUserName
p109
V@5a74fb4f11fbd172e15bfb21931303f36433b4324bdb5b83560837e64037cf9b
p110
sVCity
p111
g37
sVDisplayName
p112
g37
sVUniFriend
p113
I0
sVMemberList
p114
(lp115
sVPYQuanPin
p116
VFan
p117
sVRemarkPYInitial
p118
g37
sVUin
p119
I0
sVAppAccountFlag
p120
I0
sVVerifyFlag
p121
I0
sVProvince
p122
g37
sVKeyWord
p123
g37
sVRemarkName
p124
g37
sVPYInitial
p125
VFAN
p126
sVChatRoomId
p127
I0
sVIsOwner
p128
I0
sVHideInputBarFlag
p129
I0
sVEncryChatRoomId
p130
g37
sVAttrStatus
p131
I37978145
sVSnsFlag
p132
I17
sVMemberCount
p133
I0
sVOwnerUin
p134
I0
sVAlias
p135
g37
sVSignature
p136
V13716155774
p137
sVContactFlag
p138
I3
sVNickName
p139
VFan
p140
sVRemarkPYQuanPin
p141
g37
sVHeadImgUrl
p142
V/cgi-bin/mmwebwx-bin/webwxgeticon?seq=646254280&username=@5a74fb4f11fbd172e15bfb21931303f36433b4324bdb5b83560837e64037cf9b&skey=@crypt_7165eb59_ecec69608a5187a603046c6e3332a224
p143
sVSex
p144
I1
sVStarFriend
p145
I0
sVStatues
p146
I0
sa(dp147
VUserName
p148
V@622a798fb0e764406b1068a0769bec0b755a6224f67f29d8e7b823734e2115eb
p149
sVCity
p150
g37
sVDisplayName
p151
g37
sVUniFriend
p152
I0
sVMemberList
p153
(lp154
sVPYQuanPin
p155
Vmuziriyue
p156
sVRemarkPYInitial
p157
g37
sVUin
p158
I0
sVAppAccountFlag
p159
I0
sVVerifyFlag
p160
I0
sVProvince
p161
g37
sVKeyWord
p162
g37
sVRemarkName
p163
g37
sVPYInitial
p164
VMZRY
p165
sVChatRoomId
p166
I0
sVIsOwner
p167
I0
sVHideInputBarFlag
p168
I0
sVEncryChatRoomId
p169
g37
sVAttrStatus
p170
I102437
sVSnsFlag
p171
I1
sVMemberCount
p172
I0
sVOwnerUin
p173
I0
sVAlias
p174
g37
sVSignature
p175
V\u4f60\uff0c
p176
sVContactFlag
p177
I1
sVNickName
p178
V\u6728\u5b50\u65e5\u6708
p179
sVRemarkPYQuanPin
p180
g37
sVHeadImgUrl
p181
V/cgi-bin/mmwebwx-bin/webwxgeticon?seq=646254442&username=@622a798fb0e764406b1068a0769bec0b755a6224f67f29d8e7b823734e2115eb&skey=@crypt_7165eb59_ecec69608a5187a603046c6e3332a224
p182
sVSex
p183
I0
sVStarFriend
p184
I0
sVStatues
p185
I0
sa(dp186
VUserName
p187
V@0887cee3caf8ffea686876d32d85d406310cfbce727ab8469feb8e743c9f471b
p188
sVCity
p189
g37
sVDisplayName
p190
g37
sVUniFriend
p191
I0
sVMemberList
p192
(lp193
sVPYQuanPin
p194
Vlf
p195
sVRemarkPYInitial
p196
VLF
p197
sVUin
p198
I0
sVAppAccountFlag
p199
I0
sVVerifyFlag
p200
I0
sVProvince
p201
g37
sVKeyWord
p202
g37
sVRemarkName
p203
V\u674e\u51e4
p204
sVPYInitial
p205
VLF
p206
sVChatRoomId
p207
I0
sVIsOwner
p208
I0
sVHideInputBarFlag
p209
I0
sVEncryChatRoomId
p210
g37
sVAttrStatus
p211
I12389
sVSnsFlag
p212
I17
sVMemberCount
p213
I0
sVOwnerUin
p214
I0
sVAlias
p215
g37
sVSignature
p216
V\u4eba\u5f97\u6309\u4f60\u60f3\u7684\u53bb\u751f\u6d3b\uff0c\u5426\u5219\uff0c\u4f60\u8fdf\u65e9\u4f1a\u6309\u4f60\u751f\u6d3b\u7684\u53bb\u60f3\u3002
p217
sVContactFlag
p218
I1
sVNickName
p219
Vl@f
p220
sVRemarkPYQuanPin
p221
Vlifeng
p222
sVHeadImgUrl
p223
V/cgi-bin/mmwebwx-bin/webwxgeticon?seq=666524892&username=@0887cee3caf8ffea686876d32d85d406310cfbce727ab8469feb8e743c9f471b&skey=@crypt_7165eb59_ecec69608a5187a603046c6e3332a224
p224
sVSex
p225
I2
sVStarFriend
p226
I0
sVStatues
p227
I0
sa(dp228
VUserName
p229
V@b10081e185d672e2369d466f05e7330ba31ad4b53236639f5cb9abeb85eb1011
p230
sVCity
p231
V\u5b9c\u6625
p232
sVDisplayName
p233
g37
sVUniFriend
p234
I0
sVMemberList
p235
(lp236
sVPYQuanPin
p237
Vhuaxinglongchuanglianxiaolanjianfeiyangsheng
p238
sVRemarkPYInitial
p239
g37
sVUin
p240
I0
sVAppAccountFlag
p241
I0
sVVerifyFlag
p242
I0
sVProvince
p243
V\u6c5f\u897f
p244
sVKeyWord
p245
g37
sVRemarkName
p246
g37
sVPYInitial
p247
VHXLCLXLJFYS
p248
sVChatRoomId
p249
I0
sVIsOwner
p250
I0
sVHideInputBarFlag
p251
I0
sVEncryChatRoomId
p252
g37
sVAttrStatus
p253
I102501
sVSnsFlag
p254
I17
sVMemberCount
p255
I0
sVOwnerUin
p256
I0
sVAlias
p257
g37
sVSignature
p258
V\u5065\u5eb7\u51cf\u80a5\u4e0d\u5403\u836f\uff01\u4e0d\u6253\u9488\uff01\u4e0d\u8282\u98df\uff01\u7fbd\u60a6\u672c\u8349\u4e2d\u836f\u5916\u6577\u6708\u76268~15\u65a4\uff01
p259
sVContactFlag
p260
I1
sVNickName
p261
V\u534e\u5174\u9686\u7a97\u5e18\uff5e\u5c0f\u5170\uff08\u51cf\u80a5\u517b\u751f\uff09
p262
sVRemarkPYQuanPin
p263
g37
sVHeadImgUrl
p264
V/cgi-bin/mmwebwx-bin/webwxgeticon?seq=668584994&username=@b10081e185d672e2369d466f05e7330ba31ad4b53236639f5cb9abeb85eb1011&skey=@crypt_7165eb59_ecec69608a5187a603046c6e3332a224
p265
sVSex
p266
I2
sVStarFriend
p267
I0
sVStatues
p268
I0
sa(dp269
VUserName
p270
V@4116f5e2bbadae4e3b1e428382d8600072f826b0566fd545cc1367ba3b4dc1da
p271
sVCity
p272
V\u6df1\u5733
p273
sVDisplayName
p274
g37
sVUniFriend
p275
I0
sVMemberList
p276
(lp277
sVPYQuanPin
p278
Vbanzhuan
p279
sVRemarkPYInitial
p280
VFEN
p281
sVUin
p282
I0
sVAppAccountFlag
p283
I0
sVVerifyFlag
p284
I0
sVProvince
p285
V\u5e7f\u4e1c
p286
sVKeyWord
p287
g37
sVRemarkName
p288
VFen
p289
sVPYInitial
p290
VBZ
p291
sVChatRoomId
p292
I0
sVIsOwner
p293
I0
sVHideInputBarFlag
p294
I0
sVEncryChatRoomId
p295
g37
sVAttrStatus
p296
I102693
sVSnsFlag
p297
I1
sVMemberCount
p298
I0
sVOwnerUin
p299
I0
sVAlias
p300
g37
sVSignature
p301
g37
sVContactFlag
p302
I32771
sVNickName
p303
V\u642c\u7816
p304
sVRemarkPYQuanPin
p305
VFen
p306
sVHeadImgUrl
p307
V/cgi-bin/mmwebwx-bin/webwxgeticon?seq=655944580&username=@4116f5e2bbadae4e3b1e428382d8600072f826b0566fd545cc1367ba3b4dc1da&skey=@crypt_7165eb59_ecec69608a5187a603046c6e3332a224
p308
sVSex
p309
I2
sVStarFriend
p310
I0
sVStatues
p311
I0
sa(dp312
VUserName
p313
V@8257355ed8e18b54f15ca91afac1d10049441853557a1d116722bf5903506f4c
p314
sVCity
p315
V\u4e1c\u839e
p316
sVDisplayName
p317
g37
sVUniFriend
p318
I0
sVMemberList
p319
(lp320
sVPYQuanPin
p321
Vfeifeispanclassemojiemoji1f49dspan
p322
sVRemarkPYInitial
p323
g37
sVUin
p324
I0
sVAppAccountFlag
p325
I0
sVVerifyFlag
p326
I0
sVProvince
p327
V\u5e7f\u4e1c
p328
sVKeyWord
p329
g37
sVRemarkName
p330
g37
sVPYInitial
p331
VFFSPANCLASSEMOJIEMOJI1F49DSPAN
p332
sVChatRoomId
p333
I0
sVIsOwner
p334
I0
sVHideInputBarFlag
p335
I0
sVEncryChatRoomId
p336
g37
sVAttrStatus
p337
I107125
sVSnsFlag
p338
I17
sVMemberCount
p339
I0
sVOwnerUin
p340
I0
sVAlias
p341
g37
sVSignature
p342
g37
sVContactFlag
p343
I1
sVNickName
p344
V\u83f2\u83f2\U0001f49d
p345
sVRemarkPYQuanPin
p346
g37
sVHeadImgUrl
p347
V/cgi-bin/mmwebwx-bin/webwxgeticon?seq=668585767&username=@8257355ed8e18b54f15ca91afac1d10049441853557a1d116722bf5903506f4c&skey=@crypt_7165eb59_ecec69608a5187a603046c6e3332a224
p348
sVSex
p349
I2
sVStarFriend
p350
I0
sVStatues
p351
I0
sasS'chatroomList'
p352
(lp353
(dp354
VUserName
p355
V@@5fe4040d71a5ec53bbb0ad90e9e722fcdd0c13f59e0daf250c14c0fb3f383379
p356
sVCity
p357
g37
sVDisplayName
p358
g37
sVUniFriend
p359
I0
sVMemberList
p360
(lp361
(dp362
VUserName
p363
V@14b37be10c5105250d648aa3fe84eda30180fb9dcbde13d1c6dc7f1bcd2fd2b2
p364
sVRemarkPYQuanPin
p365
g37
sVDisplayName
p366
g37
sVKeyWord
p367
g37
sVPYInitial
p368
g37
sVUin
p369
I0
sVMemberStatus
p370
I0
sVPYQuanPin
p371
g37
sVRemarkPYInitial
p372
g37
sVNickName
p373
VAsher
p374
sVAttrStatus
p375
I233509
sa(dp376
VUserName
p377
V@4116f5e2bbadae4e3b1e428382d8600072f826b0566fd545cc1367ba3b4dc1da
p378
sVRemarkPYQuanPin
p379
g37
sVDisplayName
p380
g37
sVKeyWord
p381
g37
sVPYInitial
p382
g37
sVUin
p383
I0
sVMemberStatus
p384
I0
sVPYQuanPin
p385
g37
sVRemarkPYInitial
p386
g37
sVNickName
p387
VFen
p388
sVAttrStatus
p389
I102693
sa(dp390
VUserName
p391
V@5a74fb4f11fbd172e15bfb21931303f36433b4324bdb5b83560837e64037cf9b
p392
sVRemarkPYQuanPin
p393
g37
sVDisplayName
p394
g37
sVKeyWord
p395
g37
sVPYInitial
p396
g37
sVUin
p397
I0
sVMemberStatus
p398
I0
sVPYQuanPin
p399
g37
sVRemarkPYInitial
p400
g37
sVNickName
p401
VFan
p402
sVAttrStatus
p403
I37978145
sasVPYQuanPin
p404
g37
sVRemarkPYInitial
p405
g37
sVSex
p406
I0
sVAppAccountFlag
p407
I0
sVVerifyFlag
p408
I0
sVProvince
p409
g37
sVKeyWord
p410
g37
sVRemarkName
p411
g37
sS'self'
p412
g362
sVIsOwner
p413
I0
sVChatRoomId
p414
I0
sVHideInputBarFlag
p415
I0
sVEncryChatRoomId
p416
V@cf965ccf234e376852989c676404d105
p417
sVAttrStatus
p418
I0
sVSnsFlag
p419
I0
sVMemberCount
p420
I3
sVOwnerUin
p421
I0
sVAlias
p422
g37
sVSignature
p423
g37
sVContactFlag
p424
I2
sVNickName
p425
VAsher,\u642c\u7816,Fan
p426
sVRemarkPYQuanPin
p427
g37
sVStatues
p428
I1
sVHeadImgUrl
p429
V/cgi-bin/mmwebwx-bin/webwxgetheadimg?seq=664864570&username=@@5fe4040d71a5ec53bbb0ad90e9e722fcdd0c13f59e0daf250c14c0fb3f383379&skey=
p430
sVUin
p431
I0
sVStarFriend
p432
I0
sVPYInitial
p433
g37
sS'isAdmin'
p434
Nsa(dp435
VUserName
p436
V@14b37be10c5105250d648aa3fe84eda30180fb9dcbde13d1c6dc7f1bcd2fd2b2
p437
sVCity
p438
g37
sVDisplayName
p439
g37
sVUniFriend
p440
I0
sS'self'
p441
(dp442
g29
g24
sg30
g31
sg32
g31
sg33
I0
sg54
I0
sg34
(lp443
sg36
g37
sg38
g37
sg64
I377297971
sg40
I0
sg41
I0
sg42
g31
sg43
g31
sg44
g37
sg45
g37
sg46
I0
sg47
I0
sg48
I1
sg49
g31
sg50
I0
sg52
I0
sg53
I0
sg51
I0
sg55
g31
sg56
g57
sg58
I0
sg59
g60
sg61
g37
sg62
g63
sg39
I0
sg65
I0
sg66
I0
ssVMemberList
p444
(lp445
sVPYQuanPin
p446
g37
sVRemarkPYInitial
p447
g37
sVSex
p448
I0
sVAppAccountFlag
p449
I0
sVVerifyFlag
p450
I0
sVProvince
p451
g37
sVKeyWord
p452
g37
sVRemarkName
p453
g37
sVPYInitial
p454
g37
sVIsOwner
p455
I0
sVChatRoomId
p456
I0
sVHideInputBarFlag
p457
I0
sVEncryChatRoomId
p458
g37
sVAttrStatus
p459
I0
sVSnsFlag
p460
I0
sVMemberCount
p461
I0
sVOwnerUin
p462
I0
sVAlias
p463
g37
sVSignature
p464
g37
sVContactFlag
p465
I0
sVNickName
p466
g37
sVRemarkPYQuanPin
p467
g37
sVHeadImgUrl
p468
g37
sVUin
p469
I0
sVStarFriend
p470
I0
sVStatues
p471
I0
sS'isAdmin'
p472
NsasS'nickName'
p473
g60
sS'mpList'
p474
(lp475
ssS'loginInfo'
p476
(dp477
S'SyncKey'
p478
(dp479
VCount
p480
I7
sVList
p481
(lp482
(dp483
VVal
p484
I668585879
sVKey
p485
I1
sa(dp486
VVal
p487
I668585897
sVKey
p488
I2
sa(dp489
VVal
p490
I668585767
sVKey
p491
I3
sa(dp492
VVal
p493
I668584241
sVKey
p494
I11
sa(dp495
VVal
p496
I1530295907
sVKey
p497
I201
sa(dp498
VVal
p499
I1530273674
sVKey
p500
I1000
sa(dp501
VVal
p502
I1530267872
sVKey
p503
I1001
sassS'syncUrl'
p504
S'https://webpush.wx2.qq.com/cgi-bin/mmwebwx-bin'
p505
sS'skey'
p506
V@crypt_7165eb59_ecec69608a5187a603046c6e3332a224
p507
sS'wxuin'
p508
V377297971
p509
sS'synckey'
p510
S'1_668585879|2_668585897|3_668585767|11_668584241|201_1530295907|1000_1530273674|1001_1530267872'
p511
sS'url'
p512
Vhttps://wx2.qq.com/cgi-bin/mmwebwx-bin
p513
sS'pass_ticket'
p514
Vv33bVjpnjsk6GHH6sGAL85btIuk2BdjaXk%2F5L60kgZo9wo8iT4nNNuFm5YJnG9I9
p515
sS'deviceid'
p516
S'e125701485659802'
p517
sS'wxsid'
p518
ViI2lHIw4klJXEHOp
p519
sS'InviteStartCount'
p520
I40
sS'fileUrl'
p521
S'https://file.wx2.qq.com/cgi-bin/mmwebwx-bin'
p522
sS'BaseRequest'
p523
(dp524
g64
g509
sS'Skey'
p525
g507
sS'DeviceID'
p526
g515
sS'Sid'
p527
g519
ssS'User'
p528
g28
ss.