((iwxpy.utils.puid_map
TwoWayDict
p0
(dp1
S'_reversed'
p2
(dp3
Vf0ce7620
p4
V@6ae11e90403a65b9362264641962528290a46efeb9fc889dd292426df0ce7620
p5
sVb00a1cf2
p6
V@ff5b6294f4c0775a649176afd825e7bb22b55616540ab06e2d80eae6b00a1cf2
p7
sV0f32abf9
p8
V@c6f6ad8f048f5bb3f3d4f0884b22e17ab64f9861d4c9ec0e2fe5a3410f32abf9
p9
sV14e5aa96
p10
V@3a73e9424eab55ae6b70c97214e5aa96
p11
sV96a17955
p12
V@0d162b76f963d02e4db4970a91fab549c9b4b33bdfb4967ff4d77b7296a17955
p13
sVbe825813
p14
V@5d20a2c294f5e986a5485b35be825813
p15
sV16f5fc20
p16
V@0a88a172e49c152a6f427d11588ea4a379905fa00b3ad932d18fdc4716f5fc20
p17
sVef84f012
p18
V@94d6729105731827a37746d88ce6ce27530a69ba8cf769699082e051ef84f012
p19
sVd9b369a0
p20
V@fa2834fe689cdbd33f1a8b70d9b369a0
p21
sV1fd93262
p22
V@5927feb5dca77af029275d971fd93262
p23
sV9e58300d
p24
V@9ff245cd0f259619a555b232a3f73aa4720976f6999fbcc25f89dc939e58300d
p25
sV7ee73af3
p26
V@ce4cffc859ee1321d02f6a4200a0db13f95ec72b56b932891e9d83097ee73af3
p27
sV6fc4971b
p28
V@2de3b2a9afed75b77a3b324c6fc4971b
p29
sV257df543
p30
V@16263cfcd53f3f019f67b8a1b598bf4a04611e9833fbc0c171bbef4d257df543
p31
sVb1e3c3e3
p32
V@608440d032124f81c7b299d0190da1a8c0fd113a2f6cf2b393a3c00fb1e3c3e3
p33
sV52e6b49b
p34
V@cf81dea0a604c3d908237b783cbb810e301f533d819d45fd94881b2352e6b49b
p35
sVb1e6c4f9
p36
V@5524768f03f485946b64b0c9b0d9f58d6ed32937bac34c5c390b371db1e6c4f9
p37
sV9c2db4d0
p38
V@e067957faf2fee1723ab4f749c2db4d0
p39
sVe192ffdc
p40
V@64a202ff0c46c0d48f6b223b9cb85b04227ddca580c50ae42255d3f9e192ffdc
p41
sV43695c12
p42
V@c8eafcb8c07a4d30bae21524c87eabf3369807168382b7cd6284317b43695c12
p43
sV31a615ce
p44
V@a666786958f9b186bcebf9aade0e75c1f048af02a670af04416b4a0131a615ce
p45
sV7542ba83
p46
V@b2b49d58d7b9439f190a9ea17542ba83
p47
sVe425fad0
p48
V@7da6b814349600ce16118aa0e425fad0
p49
sV659b4fa0
p50
V@ea7348f17c259ebb800b92d8659b4fa0
p51
sVad1a1ed2
p52
V@5a7d196c7f0de3108f19b626cd1ad128b772ac00ac272653d4fe9a1dad1a1ed2
p53
sVeebdf052
p54
V@f4ef77afdd9616cc36e5e77eeebdf052
p55
sV2cf69f38
p56
V@2ba232c7c3e19a28b443a885efe8f4d71f1eb082990574530f72c94e2cf69f38
p57
sVa9b56f88
p58
V@ebad9dc58025850ab4f492dda9b56f88
p59
sV35344ad9
p60
V@39bc9a613b7f675e1d4e86fb35344ad9
p61
sV4f7c6112
p62
V@4f037a3ad27487b1ee9c3d474f7c6112
p63
sV800ae5a7
p64
V@2866f390e538cfd50a63344756bb7c29ad69f22ab522a50df3329ef7800ae5a7
p65
sV7f62f319
p66
V@61a58b3183d010fc97116e007f62f319
p67
sV2f190ae1
p68
V@e80a670d7bc8e7b41c118f4be307bf3668f9bb83b36a7d498c7a96c42f190ae1
p69
sVb635a380
p70
V@855f3f6e6798edd19390f18db635a380
p71
sV2c88c46b
p72
V@5884fe17be70b90c9f06d219352aa2dbeed76ba1dc584e67a0eadbb62c88c46b
p73
sVd11aeb59
p74
V@e7d5e1f1afe1ea6dcd24b358d11aeb59
p75
sV0cd7b760
p76
V@661b91a7fd78326f88d81fc638094cdef8519329592bc4ef7cf0e6a20cd7b760
p77
sV48a13f27
p78
V@818b8a1d8f8645be99021be5f288783be1135f321f17f2aa33dac64048a13f27
p79
sVdd6ba006
p80
V@da9abafbde0eac51f2734b77dd6ba006
p81
sV8abbeaaf
p82
V@af86d0e1ab8bda1101baf0076f32c705f28d08b89155b4c2a88bc1938abbeaaf
p83
sV9dab2ef3
p84
V@36d737616108099f700c612a9dab2ef3
p85
sV45eae5e6
p86
V@96c954490e4b805150197947355a745866e800042464a68e8ffafd6545eae5e6
p87
sVa1c519b4
p88
V@cf4f7f89586eff0c77d87a2f0e935a0189b7b533da978e9b796f9187a1c519b4
p89
sVe19227a1
p90
V@4800e8adc69d5b6d6e6b2041469571082fbb38095f1a79c695d84f20e19227a1
p91
sV06fc769f
p92
V@e52ab258d13ab92bad9fca4b3176f49f149d9cd4696e96c466f234fa06fc769f
p93
sV574ca88e
p94
V@ab9babb87f0f40df108ad81b574ca88e
p95
sV0d285116
p96
V@71c5f3a6f2c25fb19a08b7fa1ada88d8d20e525de8cb727cb188b24f0d285116
p97
sVe263f51b
p98
V@34120211ad000274229626afe263f51b
p99
sVc2209d60
p100
V@ad2cb8f129bd695c72cb7207016e72897fac35450a209cc8036c22a3c2209d60
p101
sV800e1205
p102
V@82e0e6f0107203f6e1da84b05bd88459f387dfa621d4c339764c8ffb800e1205
p103
sV48017cc0
p104
V@dc7c7dbffb83887eb46c8cc348017cc0
p105
sVc7dc8423
p106
V@e65520c9f7c873db355ce1fd9083e292a6f6be8725a146c0853eb76cc7dc8423
p107
sV561ecc50
p108
V@02167a229880f65902ae6c80af5e51053c7a7a8559410ee8e10cbfdb561ecc50
p109
sV8e9088b4
p110
V@d12ca6735dfbfa857bae221d2506f47639261d0314554a22674dab278e9088b4
p111
sVdb253a74
p112
V@48a2218f2886bd4835f7da0dfdf8082a781de5a18650a67959dfecf5db253a74
p113
sVb88176e1
p114
V@46d63c25855c7bb180bf0f72103321cf7732bdaf4032434339c492a3b88176e1
p115
sVc0082c9b
p116
V@40e15093c7385ecc1912df27c0082c9b
p117
sV3ab2612f
p118
V@421fcd4afbe06157166a22e34086bd806302e2ee4e5c299f8267230b3ab2612f
p119
sVed4b8982
p120
V@fc2848afe24f37324ae1146f9502f9ec258b8849fed8c5b034d8d4bced4b8982
p121
sV0c1cf2c2
p122
V@1e2c5946df62b8ff18ec7644b1f1c99b15b034244a5386ab07c788cc0c1cf2c2
p123
sV847f1f7a
p124
V@29172086a76cc15aa48a1641bb24a8506b6c9ce78d24b81c65fcbb21847f1f7a
p125
sV94ef7a25
p126
V@6054752a7e1d9673b4493c29fc2edc9a83be1c4ba136976daa19556994ef7a25
p127
sVa460bf06
p128
V@9d6a100649245c2751492bc044e0233142e5c2858cf5a57e93177144a460bf06
p129
sVc8702aeb
p130
V@acac1277b67d5b8d8d22c9cc2571df0976c78949391cdddbebc2f182c8702aeb
p131
sV6d7eed55
p132
V@2042ad4bd74a502de4a279aa2c78424e68124b4dff19a3da01088a846d7eed55
p133
sVe4335193
p134
V@1ee44640f28c2072f42e455502227d9ff44d32073aaca3303c09215d7b7a0952
p135
sVb865f92c
p136
V@5b5d4ed994c31b41844e2917f4174658b85f852e7df2cd924bd3887fb865f92c
p137
sVa32eb040
p138
V@460b36f0e4e7d91db28d9eb24ab02c1656d4fed1b02bd50219f5e39aa32eb040
p139
sV926c35d6
p140
V@da8800f8233791993138b18554a3d0ff982fc01164e9e5ed60536cde926c35d6
p141
sV2f79aaa2
p142
V@d484483d5c7ade5e8883eb292f79aaa2
p143
sV812d838a
p144
V@d5e651a276af84df7888141a812d838a
p145
sVf3697346
p146
V@df40a168b55e4359d7438f4390905661f3fa103a9b2cd16a49f83274f3697346
p147
sVb6a9ffef
p148
V@ba197cb117655214955f1423ffe9eaa066ec6465e231afb450fbc9adb6a9ffef
p149
sVe9bbbd07
p150
V@10c949ab54d7dd736070438ae9bbbd07
p151
sV979567ee
p152
V@378e8cac47a63ac55ee8b473979567ee
p153
sV80aa2174
p154
V@b693fdf2b3fced1e4e0f1d10dbea38e513eeb84d5103460edde8b2f280aa2174
p155
sV3d117839
p156
V@04ae1239a3cc11b5bf6baafa3d117839
p157
sV9d796995
p158
V@df0a758f482acf886a1bb6e69d796995
p159
sVd8504e28
p160
V@84246ed0f06e780867d89c1c919830d7b2f29fa02501a2e6de69c77bd8504e28
p161
sVbf73ec52
p162
V@07aea7513d2b0f7a36f4154a2d7d2f1278367f3069d6d2145b50a533e8217c03
p163
sV7359d812
p164
V@3f63b1e8800dfbb104e1b2357359d812
p165
sVba893d45
p166
V@ef1ca02038261df79b052b23ba893d45
p167
sV7bd4dcfb
p168
V@6fd886699f57b2495d7a30a103c2966d5f011132ada7aed7696b67887bd4dcfb
p169
sVdfd3b775
p170
V@0f8e63c116de1982610322870cc27204bfaba3a84f661f6404f66e02dfd3b775
p171
sV1cb0713d
p172
V@49dd7aead4ba7066df211c9a1cb0713d
p173
sVd5ff6677
p174
V@c910b6865008e73d58fce655d5ff6677
p175
sVe1d0778a
p176
V@482c4699563ae0de334f0d78e1d0778a
p177
sV888c35e7
p178
V@f972d0089c7758d71493ff30888c35e7
p179
sV34971828
p180
V@c2fd56d6e100461910b2f00f3f3d0549ab421da9e90aad257ab2cff034971828
p181
sV3ad45bfe
p182
V@3c14ffc116561c85b2115bd06ef6af7d8ca1f7f500b74fddfdefa4e73ad45bfe
p183
sV70af8b77
p184
V@34c05849a084ecaf3a7d92212183a364f2cf238108cf4d4be4d0548d70af8b77
p185
sV840d15d3
p186
V@6a1c0402704a6e44370e42ec840d15d3
p187
sVff00fcf2
p188
V@42a2211f251d1582b9a536aefcd02868d9edb44163ba8031c16a2cb3ff00fcf2
p189
sV04e37ea9
p190
V@c2965cca6ccdf8601e6a069c7ab6b927ff43a166bc021a191c6a1f3d04e37ea9
p191
sV13e8378a
p192
V@69530fb03e3b99457cc2195913e8378a
p193
sV3ccffc5f
p194
V@97fe84c0181a083df36fe7113ccffc5f
p195
sVbb5c1468
p196
V@9105d83ae8b4763fc5656b8e08cce8bc2d53fe6ef08f0ac93d930ff4bb5c1468
p197
sVac5fc89a
p198
V@e924a86620e4c24d9b23b9435be2f2a7656f335e606ab764eba5fb7cac5fc89a
p199
sV0fa62301
p200
V@df5ba25c3af2d6b1217b13460fa62301
p201
sVcc2003c4
p202
V@e016165c6ae816c78b89dafccc2003c4
p203
sVe76ca432
p204
V@4b4e7aed312a9e5b1c677664c23fa4241a11f48989502641632bfe38e76ca432
p205
sVfa6571f7
p206
V@3a38765a25004d129271e32057348bcf6ba9975a32bb0830cca6bd25fa6571f7
p207
sV43085e6f
p208
V@ca92b5cb83e763dab67a761143085e6f
p209
sV0b636f46
p210
V@acdbb5d6f52d607a08fd9ca4142621e3992a1932cf1616a57944d3be0b636f46
p211
sV97f6775b
p212
V@c13a4c10d6482f280e04e0d4f399c03ec35b99387ffcceaf330ecd5897f6775b
p213
sV6772b563
p214
V@e6d188c801549893cc61485ffd15b324ffc16b7d8e1034bcfbfa92ce6772b563
p215
sVd6b699a5
p216
V@3e65bbdb6818e873f71ebe7fdcc7ff96b517f43158679c46a1e5b179d6b699a5
p217
sV8fb0fb77
p218
V@c62529096d5e93d89e7f3ffe7053deeac7275e51b3b2c5fb11500cb98fb0fb77
p219
sV74fa487e
p220
V@cfeffaeb3b94261ad3b4edbc5b229d97489cccf7b8405e936445aed574fa487e
p221
sV6884a8c7
p222
V@07b9ff5a434d5c00019faa756884a8c7
p223
sV7d7b2cdf
p224
V@ef39e00b0c55105f6a545b587d7b2cdf
p225
sV780411fc
p226
V@6497e0252b83d8ba8eb0795f3123a0e3611a912e2bd70179c4086f0e780411fc
p227
sV6afc45a9
p228
V@e9e2db7eb4ce93935c0c41b326ecb315a4f25517ff21835482c6fbca6afc45a9
p229
sVeebf4aeb
p230
V@fd97772503f7704748a0138790612027bc6498ac2501ce6b8181386aeebf4aeb
p231
sV7ad7defc
p232
V@ba642b8d650c23b306aec4440e604c5450c7debb42b186de49375f3b7ad7defc
p233
sV889bd900
p234
V@8d19f349f46579ec06767657ab93f640a5dae3de9b3b714938927688889bd900
p235
sV4972730b
p236
V@28b78b6edde1d849c1f4dbd64972730b
p237
sV146d71e9
p238
V@8a57434bfa04ec4c3a358bfa146d71e9
p239
sV6351ef20
p240
V@a703cdebd4d9eff87e11ab2d6351ef20
p241
sVefa1ef3e
p242
V@88214c7f88201cfbdf21358cefa1ef3e
p243
sV7b379fae
p244
V@74d1fd2b4f56808be2b39c323a77b70946c21d4c0b27127db2b8a6427b379fae
p245
sV65006286
p246
V@9a5372ad14c74a4d4287fed1de3a66b54564cab22ab043e4192e413665006286
p247
sVeae0c75f
p248
V@ee6b51d8a2ef7f0b2879a9842af63d3818575f35e9e555942203cbcfeae0c75f
p249
sVf8f5e4c2
p250
V@3cdb9d848eea459465ebfbec6277e0d284c0eba782885b281b1fe2d6f8f5e4c2
p251
sV84e0b283
p252
V@74745c12ddd2b67f94b7556cd02cf0686ca5e366418f2af90e5e7a2884e0b283
p253
sV5aeb119c
p254
V@ee94fa51cbc23593916cb0a45aeb119c
p255
sV0b1937fc
p256
V@d222b63485fb4bf9e6bc5c7566591a2c3ea06fc9af80c6919da818560b1937fc
p257
sV85e328a0
p258
V@a9b0ba149a858ea4b3c1d78285e328a0
p259
sV1c7b39ae
p260
V@2b4492b6fc9a6f8ae1d6f3831c7b39ae
p261
sVc690916a
p262
V@4949ea0baaf07073cf8e76b44c360494f84960a56b8c15a770112a46c690916a
p263
ssS'data'
p264
(dp265
g161
g160
sg259
g258
sg251
g250
sg143
g142
sg103
g102
sg183
g182
sg81
g80
sg125
g124
sg79
g78
sg39
g38
sg209
g208
sg95
g94
sg131
g130
sg49
g48
sg173
g172
sg7
g6
sg227
g226
sg167
g166
sg101
g100
sg193
g192
sg189
g188
sg257
g256
sg155
g154
sg115
g114
sg117
g116
sg51
g50
sg191
g190
sg73
g72
sg245
g244
sg59
g58
sg217
g216
sg25
g24
sg221
g220
sg165
g164
sg163
g162
sg119
g118
sg177
g176
sg123
g122
sg97
g96
sg65
g64
sg99
g98
sg199
g198
sg239
g238
sg41
g40
sg89
g88
sg145
g144
sg233
g232
sg87
g86
sg137
g136
sg135
g134
sg45
g44
sg225
g224
sg37
g36
sg121
g120
sg229
g228
sg159
g158
sg63
g62
sg5
g4
sg147
g146
sg213
g212
sg33
g32
sg263
g262
sg9
g8
sg179
g178
sg255
g254
sg105
g104
sg57
g56
sg13
g12
sg113
g112
sg85
g84
sg235
g234
sg75
g74
sg15
g14
sg29
g28
sg197
g196
sg133
g132
sg253
g252
sg141
g140
sg151
g150
sg175
g174
sg187
g186
sg21
g20
sg171
g170
sg203
g202
sg19
g18
sg215
g214
sg47
g46
sg205
g204
sg91
g90
sg261
g260
sg157
g156
sg223
g222
sg67
g66
sg11
g10
sg181
g180
sg127
g126
sg237
g236
sg35
g34
sg185
g184
sg201
g200
sg61
g60
sg23
g22
sg153
g152
sg111
g110
sg53
g52
sg211
g210
sg43
g42
sg247
g246
sg55
g54
sg93
g92
sg243
g242
sg195
g194
sg207
g206
sg241
g240
sg149
g148
sg139
g138
sg77
g76
sg169
g168
sg231
g230
sg249
g248
sg107
g106
sg27
g26
sg69
g68
sg83
g82
sg109
g108
sg71
g70
sg219
g218
sg31
g30
sg129
g128
sg17
g16
ssb(iwxpy.utils.puid_map
TwoWayDict
p266
(dp267
g2
(dp268
g162
I377297971
sg134
I2770302815
ssg264
(dp269
I377297971
g162
sI2770302815
g134
ssb(iwxpy.utils.puid_map
TwoWayDict
p270
(dp271
g2
(dp272
g4
Vbbk-\u6768\u6c49\u660e
p273
sg8
Vbbk-\u6c6a\u5929\u7fd4
p274
sg10
V\u5927\u5f4a\u6280\u672f
p275
sg58
Vbbk-\u674e\u79cb\u6770
p276
sg14
V\u9648\u8fbe\u5b81
p277
sg22
Vbbk-\u5f20\u4e16\u6e56
p278
sg24
V\u5ed6\u5609\u654f
p279
sg26
Vbbk-\u5218\u5175
p280
sg28
Vbbk-\u5218\u4fca\u4ed5
p281
sg30
V\u8f6f\u901a\u52a8\u529b--\u62db\u8058
p282
sg32
V\u5f20\u6e05\u96c1\uff0d\u4e1c\u6c5f\u4e4b\u661f
p283
sg34
V\u5f20\u9526\u5dcd
p284
sg38
V\u5f90\u8bda
p285
sg40
Vbbk-\u9ec4\u5d07\u9896
p286
sg42
Vbbk-\u5468\u661f\u661f
p287
sg208
Vbbk-\u6613\u4e2d\u536b
p288
sg46
Vbbk-\u4f55\u594e
p289
sg48
Vbbk-\u66fe\u52c7\u519b
p290
sg50
Vbbk-\u9ec4\u667a\u519b
p291
sg54
Vbbk-\u738b\u7a0b\u8f89
p292
sg56
Vbbk-\u5218\u5b8f\u6d9b
p293
sg60
Vbbk-\u9a6c\u72ec\u5a77
p294
sg62
V\u5434\u8c6a
p295
sg128
V\u8d75\u661f\u6708
p296
sg66
Vbbk-\u77f3\u59d7\u59d7-\u90e8\u957f
p297
sg68
Vbbk-\u5468\u5fe0\u6770
p298
sg72
Vbbk-\u96f7\u864e\u541b
p299
sg74
Vbbk-\u674e\u6d0b
p300
sg78
V\u6b27\u9633\u8fdb\u82b3
p301
sg80
Vbbk-\u66fe\u8000\u826f
p302
sg84
Vbbk-\u51af\u94f6\u5f6c
p303
sg88
Vbbk-\u91d1\u5929\u748b
p304
sg94
V\u8212\u654f
p305
sg120
Vbbk-\u5ed6\u6cfd\u5b87
p306
sg100
V\u674e\u51e4
p307
sg102
V\u7fc1\u7426
p308
sg106
Vbbk-\u9c81\u5927\u5149
p309
sg108
V\u730e\u5934
p310
sg168
Vbbk-\u5f20\u78ca
p311
sg114
Vbbk-\u5218\u7545
p312
sg116
V\u4e00\u52a0-\u6e38\u6cfd\u5bbe
p313
sg98
Vbbk-\u9ec4\u4eae
p314
sg124
V\u5c3c\u53e4\u62c9\u65af.\u8d75\u56db(\u59dc\u7ef4)
p315
sg126
Vbbk-\u5218\u5c0f\u5229
p316
sg64
VTencent-\u5218\u715c
p317
sg130
Vbbk-\u5218\u9e4f\u98de
p318
sg132
Vbbk-\u6768\u5a77\u5a77
p319
sg136
Vbbk-\u674e\u4f1f\u8d85
p320
sg138
Vbbk-\u66f9\u65ed\u6d9b
p321
sg140
Vbbk-\u6797\u6ce2
p322
sg142
Vbbk-\u5434\u7426
p323
sg148
Vbbk-\u5434\u82f1\u53d1
p324
sg200
Vbbk-\u80e1\u6d77
p325
sg152
Vmicro-\u4f55\u5a77
p326
sg154
V\u5fd7\u7434
p327
sg262
V\u6b27\u9633\u6885
p328
sg160
V\u674e\u7389\u6770
p329
sg184
Vbbk-\u5468\u4fca\u534e
p330
sg166
V\u4e1c\u826f\u54e5
p331
sg110
V\u6ef4\u6ef4\u53f8\u673a-\u5434\u6c38\u6210
p332
sg172
Vbbk-\u6b27\u9633\u9e4f
p333
sg174
Vbbk-\u5f20\u4e9a\u5dde
p334
sg178
V\u795d\u4e91\u51cc
p335
sg170
V\u5175\u5175
p336
sg186
V\u5b8b\u950b\uff0c\u4e0a\u6d77\u5b8b\u603b
p337
sg188
V\u8c22\u5149\u8f89
p338
sg192
Vbbk-\u9648\u5fd7\u817e
p339
sg194
V\u9648\u7231\u6885
p340
sg196
V\u8001\u9633
p341
sg198
Vbbk-\u674e\u7b11\u6e05
p342
sg150
V\u77f3\u52c3
p343
sg202
Vbbk-\u53f2\u7ee7\u524d
p344
sg206
Vbbk-\u6e38\u9e4f
p345
sg240
Vbbk-\u6768\u4f1f\u660e
p346
sg210
Vbbk-\u949f\u821c
p347
sg92
Vbbk-\u949f\u656c\u5764
p348
sg220
Vbbk-\u5434\u96f7
p349
sg222
Vbbk-\u9093\u5c0f\u5175
p350
sg224
Vbbk-\u5218\u9e3f\u8fbe
p351
sg226
V\u6ef4\u6ef4\u53f8\u673a\uff0d\u5468\u4e00\u5e7f
p352
sg228
Vbbk-\u80e1\u6653\u6865
p353
sg230
Vbbk-\u90b1\u5fd7\u8d24
p354
sg234
Vbbk-\u9ec4\u5955\u8d85
p355
sg236
V\u9648\u5b66\u57ce-\u4e07\u79d1\u5976\u8336
p356
sg238
Vbbk-\u989c\u707f\u8363
p357
sg180
Vbbk-\u738b\u4e49\u6770
p358
sg244
V\u50bb\u8001\u5a46<span class="emoji emoji1f618"></span>
p359
sg246
V\u9ec4\u8d85
p360
sg248
Vbbk-\u738b\u7231\u6c11
p361
sg250
Vbbk-\u738b\u4e66\u94f6
p362
sg254
Vbbk-\u674e\u7ea2\u68a6
p363
sg260
Vbbk-\u9648\u5c55\u534e
p364
ssg264
(dp365
g292
g54
sg282
g30
sg302
g80
sg326
g152
sg345
g206
sg317
g64
sg318
g130
sg287
g42
sg321
g138
sg301
g78
sg356
g236
sg277
g14
sg346
g240
sg306
g120
sg286
g40
sg276
g58
sg338
g188
sg325
g200
sg342
g198
sg353
g228
sg285
g38
sg319
g132
sg364
g260
sg359
g244
sg309
g106
sg340
g194
sg280
g26
sg291
g50
sg355
g234
sg351
g224
sg331
g166
sg288
g208
sg310
g108
sg335
g178
sg300
g74
sg293
g56
sg279
g24
sg273
g4
sg312
g114
sg358
g180
sg322
g140
sg334
g174
sg324
g148
sg299
g72
sg360
g246
sg289
g46
sg341
g196
sg298
g68
sg305
g94
sg362
g250
sg296
g128
sg314
g98
sg348
g92
sg329
g160
sg303
g84
sg308
g102
sg363
g254
sg330
g184
sg339
g192
sg352
g226
sg297
g66
sg283
g32
sg344
g202
sg323
g142
sg337
g186
sg278
g22
sg347
g210
sg315
g124
sg320
g136
sg336
g170
sg304
g88
sg333
g172
sg332
g110
sg349
g220
sg307
g100
sg316
g126
sg328
g262
sg313
g116
sg284
g34
sg357
g238
sg290
g48
sg311
g168
sg361
g248
sg354
g230
sg343
g150
sg275
g10
sg350
g222
sg294
g60
sg327
g154
sg295
g62
sg281
g28
sg274
g8
ssb(iwxpy.utils.puid_map
TwoWayDict
p366
(dp367
g2
(dp368
g4
(V\u6768\u6c49\u660e
p369
I1
V\u5e7f\u4e1c
p370
V\u6df1\u5733
p371
tp372
sg6
(V\u88f4\u51cc\u4e49
p373
I1
V\u5e7f\u4e1c
p374
V\u4e1c\u839e
p375
tp376
sg8
(V\u6c6a\u5c0f\u7fd4
p377
I1
V\u6e56\u5317
p378
V\u6b66\u6c49
p379
tp380
sg10
(V\u56fd\u8c6a
p381
I1
V\u5e7f\u4e1c
p382
V\u6df1\u5733
p383
tp384
sg12
(VLAN
p385
I2
V\u6c5f\u897f
p386
V\u4e5d\u6c5f
p387
tp388
sg14
(VDennis
p389
I1
V\u5e7f\u4e1c
p390
V\u6df1\u5733
p391
tp392
sg16
(VA\u826f\u6865\u6d41\u6c34
p393
I1
V\u5e7f\u897f
p394
V\u6cb3\u6c60
p395
tp396
sg18
(VMR.\u6b50\u967d
p397
I2
V
p398
g398
tp399
sg20
(V\u54e6
p400
I1
V\u6c5f\u897f
p401
V\u5357\u660c
p402
tp403
sg22
(V\u4e16\u6e56
p404
I1
V\u5e7f\u4e1c
p405
V\u6df1\u5733
p406
tp407
sg24
(VMr L
p408
I1
V\u5317\u4eac
p409
g398
tp410
sg26
(V\u751f\u5982\u590f\u82b1
p411
I1
V\u5e7f\u4e1c
p412
V\u6df1\u5733
p413
tp414
sg28
(V\u5218\u4fca\u4ed5
p415
I1
V\u5e7f\u4e1c
p416
V\u4e1c\u839e
p417
tp418
sg30
(V\u7f57\u6c49\u534e
p419
I1
V\u5e7f\u4e1c
p420
V\u6df1\u5733
p421
tp422
sg32
(V\u5f20\u6e05\u96c1
p423
I1
V\u5e7f\u4e1c
p424
V\u4e1c\u839e
p425
tp426
sg34
(V\u5dcd
p427
I2
V\u5e7f\u4e1c
p428
V\u6df1\u5733
p429
tp430
sg36
(V\uff08\u9884\u7ea6\u4f18\u5148)
p431
I1
V\u5e7f\u4e1c
p432
V\u6df1\u5733
p433
tp434
sg38
(Vxucheng
p435
I1
V\u6c5f\u82cf
p436
V\u6dee\u5b89
p437
tp438
sg40
(V\u9ec4\u5d07\u9896
p439
I1
V\u5e7f\u4e1c
p440
V\u4e1c\u839e
p441
tp442
sg42
(V\u5c71\u65e0\u9675
p443
I1
V\u5e7f\u4e1c
p444
V\u6df1\u5733
p445
tp446
sg44
(VA-Whitney
p447
I2
V\u5e7f\u4e1c
p448
V\u6df1\u5733
p449
tp450
sg46
(VSuper_DC
p451
I1
V\u5e7f\u4e1c
p452
V\u4e1c\u839e
p453
tp454
sg48
(Vnull
p455
I1
V\u5e7f\u4e1c
p456
V\u6df1\u5733
p457
tp458
sg50
(V\u5c0f\u9ec4
p459
I1
V\u5e7f\u4e1c
p460
V\u4e1c\u839e
p461
tp462
sg52
(V\u5168\u6653\u660e
p463
I2
V\u5e7f\u4e1c
p464
V\u6df1\u5733
p465
tp466
sg54
(V\u8001\u738b\u7ed9\u4f60\u529b\u91cf
p467
I1
VCunene
p468
g398
tp469
sg56
(V\u7ea2\u6843\u516d
p470
I1
V\u5e7f\u4e1c
p471
V\u6df1\u5733
p472
tp473
sg58
(V\u79cb\u6770
p474
I1
V\u5e7f\u4e1c
p475
V\u4e1c\u839e
p476
tp477
sg60
(V\u9a6c\u5c0f\u5a77
p478
I2
V\u5e7f\u4e1c
p479
V\u4e1c\u839e
p480
tp481
sg62
(V\u5434
p482
I2
V\u6c5f\u897f
p483
V\u4e5d\u6c5f
p484
tp485
sg64
(VMLearning
p486
I1
V\u5e7f\u4e1c
p487
V\u5e7f\u5dde
p488
tp489
sg66
(V\u59d7\u59d7
p490
I1
g398
g398
tp491
sg68
(V\u5468\u5fe0\u6770\u6709\u70b9\u610f\u601d
p492
I1
V\u5e7f\u4e1c
p493
V\u6df1\u5733
p494
tp495
sg70
(V\u745e\u829d
p496
I2
V\u6c5f\u897f
p497
V\u4e5d\u6c5f
p498
tp499
sg72
(V\u541b\u4e34\u5929\u4e0b
p500
I1
V\u5e7f\u4e1c
p501
V\u6df1\u5733
p502
tp503
sg74
(V\u674e\u6d0b
p504
I1
V\u5e7f\u4e1c
p505
V\u6df1\u5733
p506
tp507
sg76
(V\u83f2\u83f2\U0001f49d
p508
I2
V\u5e7f\u4e1c
p509
V\u4e1c\u839e
p510
tp511
sg78
(V\u8f7b\u8f7b\u7684\u4e60\u60ef
p512
I2
V\u6c5f\u897f
p513
V\u4e5d\u6c5f
p514
tp515
sg80
(V\u51f6\u72e0
p516
I1
V\u5e7f\u4e1c
p517
V\u4e1c\u839e
p518
tp519
sg82
(V\u4f73\u4e50
p520
I2
g398
g398
tp521
sg84
(V\u987e\u6d77\u6ee8\u3002
p522
I1
V\u6e56\u5357
p523
V\u957f\u6c99
p524
tp525
sg86
(V\u7b28\u9c7c
p526
I1
V\u5929\u6d25
p527
V\u6cb3\u4e1c
p528
tp529
sg88
(V\u5f52\u53bb\u6765\u516e
p530
I1
V\u5e7f\u4e1c
p531
V\u6df1\u5733
p532
tp533
sg90
(V\u5f20\u5efa\u7701
p534
I1
V\u5e7f\u4e1c
p535
V\u6df1\u5733
p536
tp537
sg92
(V\u5764
p538
I1
V\u6d77\u5357
p539
V\u4e1c\u65b9
p540
tp541
sg94
(V\u82cf\u5e7f\u9675
p542
I1
g398
g398
tp543
sg96
(V\u5c0f\u5929\u624d\uff5e\u5c0f\u8c22
p544
I2
V\u5e7f\u4e1c
p545
V\u4e1c\u839e
p546
tp547
sg98
(V\u9ec4\u4eae
p548
I1
V\u5e7f\u4e1c
p549
V\u4e1c\u839e
p550
tp551
sg100
(Vl@f
p552
I2
g398
g398
tp553
sg102
(V\u5927\u5c0f\u773c
p554
I1
g398
g398
tp555
sg104
(V\u7ae0\u8dc3\u5e73@linktal.com
p556
I1
V\u5317\u4eac
p557
V\u671d\u9633
p558
tp559
sg106
(VLight
p560
I1
V\u6e56\u5357
p561
V\u957f\u6c99
p562
tp563
sg108
(VYuki\u2728\u67f3\u4e07\u96ea
p564
I2
VBali
p565
g398
tp566
sg110
(V\u4e00\u8f6c\u8eab\u4e00\u8f88\u5b50
p567
I1
V\u5e7f\u4e1c
p568
V\u4e1c\u839e
p569
tp570
sg112
(VDavid@\u817e\u8baf
p571
I1
V\u5e7f\u4e1c
p572
V\u6df1\u5733
p573
tp574
sg114
(V\u5927\u7545
p575
I1
V\u5e7f\u4e1c
p576
V\u4e1c\u839e
p577
tp578
sg116
(V\u5c0f\u9aa8
p579
I1
V\u5e7f\u4e1c
p580
V\u6df1\u5733
p581
tp582
sg118
(V\u9f99\u4e4b\u865e
p583
I1
g398
g398
tp584
sg120
(Vfiresmog
p585
I1
V\u6e56\u5357
p586
V\u5cb3\u9633
p587
tp588
sg122
(VMandy.Chen
p589
I2
V\u5e7f\u4e1c
p590
V\u6df1\u5733
p591
tp592
sg124
(V\u5c3c\u53e4\u62c9\u65af.\u8d75\u56db
p593
I2
V\u5317\u4eac
p594
g398
tp595
sg126
(V\u5218\u5c0f\u5229
p596
I2
V\u5e7f\u4e1c
p597
V\u4e1c\u839e
p598
tp599
sg128
(V\u590f\u70df\u6563
p600
I2
V\u5e7f\u4e1c
p601
V\u6df1\u5733
p602
tp603
sg130
(V\u5218\u9e4f\u98de
p604
I1
V\u5e7f\u4e1c
p605
V\u6df1\u5733
p606
tp607
sg132
(V\u6768\u5a77\u5a77
p608
I2
V\u5e7f\u4e1c
p609
V\u4e1c\u839e
p610
tp611
sg134
(VFan
p612
I1
S''
p613
g613
tp614
sg136
(V\u6d77\u5929\u4e00\u7ebf
p615
I1
V\u5e7f\u4e1c
p616
V\u4e1c\u839e
p617
tp618
sg138
(V\u66f9\u65ed\u6d9b
p619
I2
V\u6c5f\u897f
p620
V\u5b9c\u6625
p621
tp622
sg140
(V\u6728\u6728
p623
I1
V\u5e7f\u4e1c
p624
V\u6df1\u5733
p625
tp626
sg142
(VSmile
p627
I1
V\u6e56\u5317
p628
V\u6b66\u6c49
p629
tp630
sg144
(V\u6d0b
p631
I1
V\u9ed1\u9f99\u6c5f
p632
V\u5927\u5e86
p633
tp634
sg146
(V\u7fc1\u7426\u540c\u5b66
p635
I1
V\u6c5f\u897f
p636
V\u5b9c\u6625
p637
tp638
sg148
(V\u5b64\u72ec\u5251\u5ba2508
p639
I1
V\u5e7f\u4e1c
p640
V\u6df1\u5733
p641
tp642
sg150
(V\u67cf\u62c9\u56fe\u6c38\u6052
p643
I1
V\u6c5f\u897f
p644
g398
tp645
sg152
(V\u4f55\u5a77
p646
I2
V\u5317\u4eac
p647
V\u671d\u9633
p648
tp649
sg154
(Voyzq
p650
I1
V\u6c5f\u897f
p651
V\u4e5d\u6c5f
p652
tp653
sg156
(VYaisa
p654
I2
V\u6c5f\u897f
p655
V\u4e0a\u9976
p656
tp657
sg158
(V\u909d\u5f6c\u5f6c@LinkTal.com
p658
I1
V\u6cb3\u5357
p659
V\u5468\u53e3
p660
tp661
sg160
(V\u4e0b\u96e8\u5929\u6349\u9c7c
p662
I1
V\u5317\u4eac
p663
V\u671d\u9633
p664
tp665
sg162
(VAsher
p666
I0
g613
g613
tp667
sg164
(V\u6276\u9633\u5f8b\u5e08 | \u56fd\u4fe118011967009
p668
I1
V\u5e7f\u4e1c
p669
V\u5e7f\u5dde
p670
tp671
sg166
(V\u884c\u8005\u65e0\u7586zdl
p672
I1
V\u5e7f\u4e1c
p673
V\u5e7f\u5dde
p674
tp675
sg168
(V\u5f20\u5927\u78ca
p676
I1
V\u56db\u5ddd
p677
V\u5e7f\u5b89
p678
tp679
sg170
(V\u561b\u561b\u54aa\u5440
p680
I1
V\u6c5f\u897f
p681
V\u4e5d\u6c5f
p682
tp683
sg172
(VAndy
p684
I1
V\u5e7f\u4e1c
p685
V\u6df1\u5733
p686
tp687
sg174
(V\u5b59\u7334\u5b50
p688
I1
V\u9655\u897f
p689
V\u897f\u5b89
p690
tp691
sg176
(V\u8463\u5b9a\u7389
p692
I1
V\u5e7f\u4e1c
p693
V\u4e1c\u839e
p694
tp695
sg178
(V\u2728 \u6027\u611f\u5c0f\u732a\u732a
p696
I1
V\u6d59\u6c5f
p697
V\u676d\u5dde
p698
tp699
sg180
(Vdebug\u4e24\u5c0f\u65f6
p700
I1
V\u5e7f\u4e1c
p701
V\u5e7f\u5dde
p702
tp703
sg182
(V\u674e\u4ef2\u94a6-\u4e2d\u5347\u5954\u9a70-\u9500\u552e\u987e\u95ee
p704
I1
V\u5e7f\u4e1c
p705
V\u4e1c\u839e
p706
tp707
sg184
(Vzhoujunhua
p708
I1
V\u91cd\u5e86
p709
V\u5317\u789a
p710
tp711
sg186
(V\u950b
p712
I1
V\u5317\u4eac
p713
V\u671d\u9633
p714
tp715
sg188
(V\u8c22\u5149\u8f89
p716
I1
V\u5e7f\u4e1c
p717
V\u6df1\u5733
p718
tp719
sg190
(V\u718a\u6fdb
p720
I1
VNew South Wales
p721
VSydney
p722
tp723
sg192
(V\u5927\u5fd7
p724
I1
V\u798f\u5efa
p725
V\u53a6\u95e8
p726
tp727
sg194
(V\u7231\u9171
p728
I2
VZurich
p729
g398
tp730
sg196
(V\u4e0a\u597d\u4fbf\u5229\u5e97\u7f8e\u56e2\u5916\u5356\u7ebf\u4e0a\u4fc3\u9500\u6d3b\u52a8\u4e2d
p731
I1
V\u5e7f\u4e1c
p732
V\u4e1c\u839e
p733
tp734
sg198
(V\u674e\u7267\u843d
p735
I1
V\u5e7f\u4e1c
p736
V\u6df1\u5733
p737
tp738
sg200
(V\u6d77
p739
I1
V\u6c5f\u897f
p740
V\u5357\u660c
p741
tp742
sg202
(V\u53f2
p743
I1
V\u5e7f\u4e1c
p744
V\u73e0\u6d77
p745
tp746
sg204
(V\u7f2a\u667a\u5f3a
p747
I1
V\u5e7f\u4e1c
p748
V\u6df1\u5733
p749
tp750
sg206
(Vyou
p751
I1
V\u798f\u5efa
p752
V\u53a6\u95e8
p753
tp754
sg208
(VYui
p755
I1
V\u5e7f\u4e1c
p756
V\u6df1\u5733
p757
tp758
sg210
(V\u821c
p759
I1
V\u5e7f\u4e1c
p760
V\u4e1c\u839e
p761
tp762
sg212
(V\u90ed\u660e\u9633\uff5e\u65f6\u5174\u65b0\u4e2d\u5f0f
p763
I1
V\u5e7f\u4e1c
p764
V\u4e1c\u839e
p765
tp766
sg214
(V\u6b27\u9633\u4e2d\u654f
p767
I1
V\u5e7f\u4e1c
p768
V\u5e7f\u5dde
p769
tp770
sg216
(Vneeloh-\u4e50\u4e50\u4e50\u4e50\u4e50
p771
I2
V\u5e7f\u4e1c
p772
V\u4e1c\u839e
p773
tp774
sg218
(Vlittle puer
p775
I1
g398
g398
tp776
sg220
(V\u96e8\u7530vz
p777
I1
g398
g398
tp778
sg222
(V\u5c0f\u5175\u54e5
p779
I1
V\u5e7f\u4e1c
p780
V\u6df1\u5733
p781
tp782
sg224
(V\u5927\u5148\u751f\U0001f34e
p783
I1
VKyiv
p784
g398
tp785
sg226
(V\u8f66\u5e7f
p786
I1
V\u5e7f\u4e1c
p787
V\u8302\u540d
p788
tp789
sg228
(VJoe
p790
I1
V\u5e7f\u4e1c
p791
V\u60e0\u5dde
p792
tp793
sg230
(VJASON
p794
I1
g398
g398
tp795
sg232
(V\u5e84\u67f3
p796
I2
V\u5317\u4eac
p797
V\u6d77\u6dc0
p798
tp799
sg234
(V\u795e\u5f69
p800
I1
g398
g398
tp801
sg236
(V\u7f8e\u5473\u6e90\u96c6\u56e2 \u8aa0\u73f9
p802
I1
V\u5e7f\u4e1c
p803
V\u5e7f\u5dde
p804
tp805
sg238
(V\u9050\u60f3
p806
I1
V\u5e7f\u4e1c
p807
V\u6f6e\u5dde
p808
tp809
sg240
(VBruce
p810
I1
V\u5e7f\u4e1c
p811
V\u6df1\u5733
p812
tp813
sg242
(V\u5b5f\u8f89
p814
I1
V\u5317\u4eac
p815
V\u671d\u9633
p816
tp817
sg244
(V\u642c\u7816
p818
I2
V\u5e7f\u4e1c
p819
V\u6df1\u5733
p820
tp821
sg246
(Vsupermen
p822
I1
g398
g398
tp823
sg248
(V\u4f59\u751f\u53ea\u5ba0\u4f60
p824
I1
VCuanza Sul
p825
g398
tp826
sg250
(V\u7834\u6267
p827
I1
V\u5e7f\u4e1c
p828
V\u6df1\u5733
p829
tp830
sg252
(V\u730e\u4ebaserena wan
p831
I2
g398
g398
tp832
sg254
(V\u5a1c\u5854\u838e\u7684\u9a91\u58eb
p833
I1
V\u6c5f\u897f
p834
V\u5357\u660c
p835
tp836
sg256
(V\u9752\u9752
p837
I2
V\u6e56\u5317
p838
V\u6b66\u6c49
p839
tp840
sg258
(VJulie
p841
I2
V\u5e7f\u4e1c
p842
V\u6df1\u5733
p843
tp844
sg260
(Vzhanhua
p845
I1
V\u5e7f\u4e1c
p846
V\u6df1\u5733
p847
tp848
sg262
(V\u6b27\u7f8a\u7f8a
p849
I2
V\u5e7f\u4e1c
p850
V\u6df1\u5733
p851
tp852
ssg264
(dp853
g551
g98
sg738
g198
sg592
g122
sg719
g188
sg430
g34
sg657
g156
sg785
g224
sg559
g104
sg438
g38
sg661
g158
sg399
g18
sg754
g206
sg840
g256
sg634
g144
sg442
g40
sg727
g192
sg746
g202
sg848
g260
sg570
g110
sg418
g28
sg388
g12
sg537
g90
sg691
g174
sg774
g216
sg642
g148
sg653
g154
sg446
g42
sg679
g168
sg852
g262
sg541
g92
sg469
g54
sg462
g50
sg380
g8
sg495
g68
sg789
g226
sg758
g208
sg703
g180
sg675
g166
sg611
g132
sg410
g24
sg407
g22
sg667
g162
sg823
g246
sg671
g164
sg766
g212
sg699
g178
sg477
g58
sg695
g176
sg503
g72
sg750
g204
sg683
g170
sg414
g26
sg638
g146
sg372
g4
sg711
g184
sg614
g134
sg595
g124
sg770
g214
sg515
g78
sg645
g150
sg776
g218
sg489
g64
sg607
g130
sg584
g118
sg499
g70
sg836
g254
sg529
g86
sg473
g56
sg626
g140
sg519
g80
sg832
g252
sg547
g96
sg723
g190
sg795
g230
sg734
g196
sg665
g160
sg826
g248
sg762
g210
sg574
g112
sg821
g244
sg622
g138
sg778
g220
sg543
g94
sg809
g238
sg588
g120
sg454
g46
sg392
g14
sg466
g52
sg403
g20
sg525
g84
sg715
g186
sg507
g74
sg813
g240
sg533
g88
sg801
g234
sg844
g258
sg805
g236
sg707
g182
sg687
g172
sg582
g116
sg730
g194
sg376
g6
sg817
g242
sg793
g228
sg742
g200
sg426
g32
sg422
g30
sg458
g48
sg578
g114
sg396
g16
sg566
g108
sg491
g66
sg618
g136
sg782
g222
sg799
g232
sg563
g106
sg599
g126
sg630
g142
sg434
g36
sg649
g152
sg555
g102
sg481
g60
sg511
g76
sg830
g250
sg553
g100
sg485
g62
sg603
g128
sg521
g82
sg384
g10
sg450
g44
ssbtp854
.