((iwxpy.utils.puid_map
TwoWayDict
p0
(dp1
S'_reversed'
p2
(dp3
Vc45523c5
p4
V@7f4f29b41a5474a0f692ac22c45523c5
p5
sV85eb1011
p6
V@b10081e185d672e2369d466f05e7330ba31ad4b53236639f5cb9abeb85eb1011
p7
sVcd2fd2b2
p8
V@14b37be10c5105250d648aa3fe84eda30180fb9dcbde13d1c6dc7f1bcd2fd2b2
p9
sV3b4dc1da
p10
V@4116f5e2bbadae4e3b1e428382d8600072f826b0566fd545cc1367ba3b4dc1da
p11
sV03506f4c
p12
V@8257355ed8e18b54f15ca91afac1d10049441853557a1d116722bf5903506f4c
p13
sV3c9f471b
p14
V@0887cee3caf8ffea686876d32d85d406310cfbce727ab8469feb8e743c9f471b
p15
sV4037cf9b
p16
V@5a74fb4f11fbd172e15bfb21931303f36433b4324bdb5b83560837e64037cf9b
p17
sV4e2115eb
p18
V@622a798fb0e764406b1068a0769bec0b755a6224f67f29d8e7b823734e2115eb
p19
ssS'data'
p20
(dp21
g5
g4
sg15
g14
sg19
g18
sg11
g10
sg7
g6
sg9
g8
sg17
g16
sg13
g12
ssb(iwxpy.utils.puid_map
TwoWayDict
p22
(dp23
g2
(dp24
g8
I377297971
ssg20
(dp25
I377297971
g8
ssb(iwxpy.utils.puid_map
TwoWayDict
p26
(dp27
g2
(dp28
g14
V\u674e\u51e4
p29
sg10
VFen
p30
ssg20
(dp31
g30
g10
sg29
g14
ssb(iwxpy.utils.puid_map
TwoWayDict
p32
(dp33
g2
(dp34
g4
(V\u4f3c\u6c34\u6d41\u5e74
p35
I1
V\u6c5f\u897f
p36
V\u5357\u660c
p37
tp38
sg6
(V\u534e\u5174\u9686\u7a97\u5e18\uff5e\u5c0f\u5170\uff08\u51cf\u80a5\u517b\u751f\uff09
p39
I2
V\u6c5f\u897f
p40
V\u5b9c\u6625
p41
tp42
sg8
(VAsher
p43
I0
S''
p44
g44
tp45
sg10
(V\u642c\u7816
p46
I2
V\u5e7f\u4e1c
p47
V\u6df1\u5733
p48
tp49
sg12
(V\u83f2\u83f2\U0001f49d
p50
I2
V\u5e7f\u4e1c
p51
V\u4e1c\u839e
p52
tp53
sg14
(Vl@f
p54
I2
V
p55
g55
tp56
sg16
(VFan
p57
I1
g55
g55
tp58
sg18
(V\u6728\u5b50\u65e5\u6708
p59
I0
g55
g55
tp60
ssg20
(dp61
g58
g16
sg45
g8
sg56
g14
sg42
g6
sg49
g10
sg60
g18
sg53
g12
sg38
g4
ssbtp62
.